Archive member included to satisfy reference by file (symbol)

../Libraries/libstm32.a(system_stm32f4xx.o)
                              ../Libraries/CMSIS/Device/ST/STM32F4xx/Source/Templates/gcc_ride7/startup_stm32f4xx.o (SystemInit)
../Libraries/libstm32.a(stm32f4xx_gpio.o)
                              build/general.o (GPIO_Init)
../Libraries/libstm32.a(stm32f4xx_dma.o)
                              build/usart.o (DMA_DeInit)
../Libraries/libstm32.a(stm32f4xx_rcc.o)
                              build/config_clock_flash.o (RCC_DeInit)
../Libraries/libstm32.a(stm32f4xx_flash.o)
                              build/config_clock_flash.o (FLASH_SetLatency)
../Libraries/libstm32.a(misc.o)
                              build/adc.o (NVIC_Init)
../Libraries/libstm32.a(stm32f4xx_usart.o)
                              build/usart.o (USART_Init)
../Libraries/libstm32.a(stm32f4xx_adc.o)
                              build/adc.o (ADC_Init)
../Libraries/libstm32.a(stm32f4xx_tim.o)
                              build/config_PWM.o (TIM_TimeBaseInit)
/usr/lib/gcc/arm-none-eabi/4.9.3/armv7e-m/libgcc.a(_arm_addsubdf3.o)
                              build/module_test.o (__aeabi_f2d)
/usr/lib/gcc/arm-none-eabi/4.9.3/armv7e-m/libgcc.a(_arm_truncdfsf2.o)
                              build/prm_interface.o (__aeabi_d2f)
/usr/lib/gcc/arm-none-eabi/4.9.3/armv7e-m/libgcc.a(_arm_addsubsf3.o)
                              build/adc.o (__aeabi_ul2f)
/usr/lib/gcc/arm-none-eabi/4.9.3/armv7e-m/libgcc.a(_aeabi_uldivmod.o)
                              build/config_time.o (__aeabi_uldivmod)
/usr/lib/gcc/arm-none-eabi/4.9.3/armv7e-m/libgcc.a(_fixunssfdi.o)
                              build/config_time.o (__aeabi_f2ulz)
/usr/lib/gcc/arm-none-eabi/4.9.3/armv7e-m/libgcc.a(bpabi.o)
                              /usr/lib/gcc/arm-none-eabi/4.9.3/armv7e-m/libgcc.a(_aeabi_uldivmod.o) (__gnu_uldivmod_helper)
/usr/lib/gcc/arm-none-eabi/4.9.3/armv7e-m/libgcc.a(_dvmd_tls.o)
                              /usr/lib/gcc/arm-none-eabi/4.9.3/armv7e-m/libgcc.a(_aeabi_uldivmod.o) (__aeabi_ldiv0)
/usr/lib/gcc/arm-none-eabi/4.9.3/armv7e-m/libgcc.a(_arm_muldivdf3.o)
                              /usr/lib/gcc/arm-none-eabi/4.9.3/armv7e-m/libgcc.a(_fixunssfdi.o) (__aeabi_dmul)
/usr/lib/gcc/arm-none-eabi/4.9.3/armv7e-m/libgcc.a(_arm_fixunsdfsi.o)
                              /usr/lib/gcc/arm-none-eabi/4.9.3/armv7e-m/libgcc.a(_fixunssfdi.o) (__aeabi_d2uiz)
/usr/lib/gcc/arm-none-eabi/4.9.3/armv7e-m/libgcc.a(_divdi3.o)
                              /usr/lib/gcc/arm-none-eabi/4.9.3/armv7e-m/libgcc.a(bpabi.o) (__divdi3)
/usr/lib/gcc/arm-none-eabi/4.9.3/armv7e-m/libgcc.a(_udivdi3.o)
                              /usr/lib/gcc/arm-none-eabi/4.9.3/armv7e-m/libgcc.a(bpabi.o) (__udivdi3)
/usr/lib/gcc/arm-none-eabi/4.9.3/../../../arm-none-eabi/lib/armv7e-m/libc.a(lib_a-abort.o)
                              build/syscall.o (abort)
/usr/lib/gcc/arm-none-eabi/4.9.3/../../../arm-none-eabi/lib/armv7e-m/libc.a(lib_a-atof.o)
                              build/prm_interface.o (atof)
/usr/lib/gcc/arm-none-eabi/4.9.3/../../../arm-none-eabi/lib/armv7e-m/libc.a(lib_a-atoi.o)
                              build/prm_interface.o (atoi)
/usr/lib/gcc/arm-none-eabi/4.9.3/../../../arm-none-eabi/lib/armv7e-m/libc.a(lib_a-fflush.o)
                              build/module_test.o (fflush)
/usr/lib/gcc/arm-none-eabi/4.9.3/../../../arm-none-eabi/lib/armv7e-m/libc.a(lib_a-findfp.o)
                              /usr/lib/gcc/arm-none-eabi/4.9.3/../../../arm-none-eabi/lib/armv7e-m/libc.a(lib_a-fflush.o) (__sinit)
/usr/lib/gcc/arm-none-eabi/4.9.3/../../../arm-none-eabi/lib/armv7e-m/libc.a(lib_a-freer.o)
                              /usr/lib/gcc/arm-none-eabi/4.9.3/../../../arm-none-eabi/lib/armv7e-m/libc.a(lib_a-fflush.o) (_free_r)
/usr/lib/gcc/arm-none-eabi/4.9.3/../../../arm-none-eabi/lib/armv7e-m/libc.a(lib_a-fwalk.o)
                              /usr/lib/gcc/arm-none-eabi/4.9.3/../../../arm-none-eabi/lib/armv7e-m/libc.a(lib_a-findfp.o) (_fwalk)
/usr/lib/gcc/arm-none-eabi/4.9.3/../../../arm-none-eabi/lib/armv7e-m/libc.a(lib_a-impure.o)
                              /usr/lib/gcc/arm-none-eabi/4.9.3/../../../arm-none-eabi/lib/armv7e-m/libc.a(lib_a-fflush.o) (_global_impure_ptr)
/usr/lib/gcc/arm-none-eabi/4.9.3/../../../arm-none-eabi/lib/armv7e-m/libc.a(lib_a-mallocr.o)
                              /usr/lib/gcc/arm-none-eabi/4.9.3/../../../arm-none-eabi/lib/armv7e-m/libc.a(lib_a-findfp.o) (_malloc_r)
/usr/lib/gcc/arm-none-eabi/4.9.3/../../../arm-none-eabi/lib/armv7e-m/libc.a(lib_a-memset.o)
                              /usr/lib/gcc/arm-none-eabi/4.9.3/../../../arm-none-eabi/lib/armv7e-m/libc.a(lib_a-findfp.o) (memset)
/usr/lib/gcc/arm-none-eabi/4.9.3/../../../arm-none-eabi/lib/armv7e-m/libc.a(lib_a-mlock.o)
                              /usr/lib/gcc/arm-none-eabi/4.9.3/../../../arm-none-eabi/lib/armv7e-m/libc.a(lib_a-freer.o) (__malloc_lock)
/usr/lib/gcc/arm-none-eabi/4.9.3/../../../arm-none-eabi/lib/armv7e-m/libc.a(lib_a-printf.o)
                              build/module_test.o (printf)
/usr/lib/gcc/arm-none-eabi/4.9.3/../../../arm-none-eabi/lib/armv7e-m/libc.a(lib_a-puts.o)
                              build/module_test.o (puts)
/usr/lib/gcc/arm-none-eabi/4.9.3/../../../arm-none-eabi/lib/armv7e-m/libc.a(lib_a-reent.o)
                              build/syscall.o (errno)
/usr/lib/gcc/arm-none-eabi/4.9.3/../../../arm-none-eabi/lib/armv7e-m/libc.a(lib_a-sbrkr.o)
                              /usr/lib/gcc/arm-none-eabi/4.9.3/../../../arm-none-eabi/lib/armv7e-m/libc.a(lib_a-freer.o) (_sbrk_r)
/usr/lib/gcc/arm-none-eabi/4.9.3/../../../arm-none-eabi/lib/armv7e-m/libc.a(lib_a-signal.o)
                              /usr/lib/gcc/arm-none-eabi/4.9.3/../../../arm-none-eabi/lib/armv7e-m/libc.a(lib_a-abort.o) (raise)
/usr/lib/gcc/arm-none-eabi/4.9.3/../../../arm-none-eabi/lib/armv7e-m/libc.a(lib_a-signalr.o)
                              /usr/lib/gcc/arm-none-eabi/4.9.3/../../../arm-none-eabi/lib/armv7e-m/libc.a(lib_a-signal.o) (_kill_r)
/usr/lib/gcc/arm-none-eabi/4.9.3/../../../arm-none-eabi/lib/armv7e-m/libc.a(lib_a-stdio.o)
                              /usr/lib/gcc/arm-none-eabi/4.9.3/../../../arm-none-eabi/lib/armv7e-m/libc.a(lib_a-findfp.o) (__sread)
/usr/lib/gcc/arm-none-eabi/4.9.3/../../../arm-none-eabi/lib/armv7e-m/libc.a(lib_a-strlen.o)
                              build/prm_interface.o (strlen)
/usr/lib/gcc/arm-none-eabi/4.9.3/../../../arm-none-eabi/lib/armv7e-m/libc.a(lib_a-strncmp.o)
                              build/prm_interface.o (strncmp)
/usr/lib/gcc/arm-none-eabi/4.9.3/../../../arm-none-eabi/lib/armv7e-m/libc.a(lib_a-strncpy.o)
                              build/prm_interface.o (strncpy)
/usr/lib/gcc/arm-none-eabi/4.9.3/../../../arm-none-eabi/lib/armv7e-m/libc.a(lib_a-strtod.o)
                              /usr/lib/gcc/arm-none-eabi/4.9.3/../../../arm-none-eabi/lib/armv7e-m/libc.a(lib_a-atof.o) (strtod)
/usr/lib/gcc/arm-none-eabi/4.9.3/../../../arm-none-eabi/lib/armv7e-m/libc.a(lib_a-strtol.o)
                              /usr/lib/gcc/arm-none-eabi/4.9.3/../../../arm-none-eabi/lib/armv7e-m/libc.a(lib_a-atoi.o) (_strtol_r)
/usr/lib/gcc/arm-none-eabi/4.9.3/../../../arm-none-eabi/lib/armv7e-m/libc.a(lib_a-syswrite.o)
                              build/syscall.o (write)
/usr/lib/gcc/arm-none-eabi/4.9.3/../../../arm-none-eabi/lib/armv7e-m/libc.a(lib_a-vfprintf.o)
                              /usr/lib/gcc/arm-none-eabi/4.9.3/../../../arm-none-eabi/lib/armv7e-m/libc.a(lib_a-printf.o) (_vfprintf_r)
/usr/lib/gcc/arm-none-eabi/4.9.3/../../../arm-none-eabi/lib/armv7e-m/libc.a(lib_a-writer.o)
                              /usr/lib/gcc/arm-none-eabi/4.9.3/../../../arm-none-eabi/lib/armv7e-m/libc.a(lib_a-stdio.o) (_write_r)
/usr/lib/gcc/arm-none-eabi/4.9.3/../../../arm-none-eabi/lib/armv7e-m/libc.a(lib_a-wsetup.o)
                              /usr/lib/gcc/arm-none-eabi/4.9.3/../../../arm-none-eabi/lib/armv7e-m/libc.a(lib_a-vfprintf.o) (__swsetup_r)
/usr/lib/gcc/arm-none-eabi/4.9.3/../../../arm-none-eabi/lib/armv7e-m/libc.a(lib_a-closer.o)
                              /usr/lib/gcc/arm-none-eabi/4.9.3/../../../arm-none-eabi/lib/armv7e-m/libc.a(lib_a-stdio.o) (_close_r)
/usr/lib/gcc/arm-none-eabi/4.9.3/../../../arm-none-eabi/lib/armv7e-m/libc.a(lib_a-ctype_.o)
                              /usr/lib/gcc/arm-none-eabi/4.9.3/../../../arm-none-eabi/lib/armv7e-m/libc.a(lib_a-strtol.o) (__ctype_ptr__)
/usr/lib/gcc/arm-none-eabi/4.9.3/../../../arm-none-eabi/lib/armv7e-m/libc.a(lib_a-dtoa.o)
                              /usr/lib/gcc/arm-none-eabi/4.9.3/../../../arm-none-eabi/lib/armv7e-m/libc.a(lib_a-vfprintf.o) (_dtoa_r)
/usr/lib/gcc/arm-none-eabi/4.9.3/../../../arm-none-eabi/lib/armv7e-m/libc.a(lib_a-fclose.o)
                              /usr/lib/gcc/arm-none-eabi/4.9.3/../../../arm-none-eabi/lib/armv7e-m/libc.a(lib_a-findfp.o) (_fclose_r)
/usr/lib/gcc/arm-none-eabi/4.9.3/../../../arm-none-eabi/lib/armv7e-m/libc.a(lib_a-fvwrite.o)
                              /usr/lib/gcc/arm-none-eabi/4.9.3/../../../arm-none-eabi/lib/armv7e-m/libc.a(lib_a-puts.o) (__sfvwrite_r)
/usr/lib/gcc/arm-none-eabi/4.9.3/../../../arm-none-eabi/lib/armv7e-m/libc.a(lib_a-gdtoa-gethex.o)
                              /usr/lib/gcc/arm-none-eabi/4.9.3/../../../arm-none-eabi/lib/armv7e-m/libc.a(lib_a-strtod.o) (__gethex)
/usr/lib/gcc/arm-none-eabi/4.9.3/../../../arm-none-eabi/lib/armv7e-m/libc.a(lib_a-gdtoa-hexnan.o)
                              /usr/lib/gcc/arm-none-eabi/4.9.3/../../../arm-none-eabi/lib/armv7e-m/libc.a(lib_a-strtod.o) (__hexnan)
/usr/lib/gcc/arm-none-eabi/4.9.3/../../../arm-none-eabi/lib/armv7e-m/libc.a(lib_a-locale.o)
                              /usr/lib/gcc/arm-none-eabi/4.9.3/../../../arm-none-eabi/lib/armv7e-m/libc.a(lib_a-strtod.o) (_localeconv_r)
/usr/lib/gcc/arm-none-eabi/4.9.3/../../../arm-none-eabi/lib/armv7e-m/libc.a(lib_a-lseekr.o)
                              /usr/lib/gcc/arm-none-eabi/4.9.3/../../../arm-none-eabi/lib/armv7e-m/libc.a(lib_a-stdio.o) (_lseek_r)
/usr/lib/gcc/arm-none-eabi/4.9.3/../../../arm-none-eabi/lib/armv7e-m/libc.a(lib_a-makebuf.o)
                              /usr/lib/gcc/arm-none-eabi/4.9.3/../../../arm-none-eabi/lib/armv7e-m/libc.a(lib_a-wsetup.o) (__smakebuf_r)
/usr/lib/gcc/arm-none-eabi/4.9.3/../../../arm-none-eabi/lib/armv7e-m/libc.a(lib_a-memchr.o)
                              /usr/lib/gcc/arm-none-eabi/4.9.3/../../../arm-none-eabi/lib/armv7e-m/libc.a(lib_a-vfprintf.o) (memchr)
/usr/lib/gcc/arm-none-eabi/4.9.3/../../../arm-none-eabi/lib/armv7e-m/libc.a(lib_a-memcpy.o)
                              /usr/lib/gcc/arm-none-eabi/4.9.3/../../../arm-none-eabi/lib/armv7e-m/libc.a(lib_a-strtod.o) (memcpy)
/usr/lib/gcc/arm-none-eabi/4.9.3/../../../arm-none-eabi/lib/armv7e-m/libc.a(lib_a-memmove.o)
                              /usr/lib/gcc/arm-none-eabi/4.9.3/../../../arm-none-eabi/lib/armv7e-m/libc.a(lib_a-fvwrite.o) (memmove)
/usr/lib/gcc/arm-none-eabi/4.9.3/../../../arm-none-eabi/lib/armv7e-m/libc.a(lib_a-mprec.o)
                              /usr/lib/gcc/arm-none-eabi/4.9.3/../../../arm-none-eabi/lib/armv7e-m/libc.a(lib_a-strtod.o) (_Balloc)
/usr/lib/gcc/arm-none-eabi/4.9.3/../../../arm-none-eabi/lib/armv7e-m/libc.a(lib_a-readr.o)
                              /usr/lib/gcc/arm-none-eabi/4.9.3/../../../arm-none-eabi/lib/armv7e-m/libc.a(lib_a-stdio.o) (_read_r)
/usr/lib/gcc/arm-none-eabi/4.9.3/../../../arm-none-eabi/lib/armv7e-m/libc.a(lib_a-reallocr.o)
                              /usr/lib/gcc/arm-none-eabi/4.9.3/../../../arm-none-eabi/lib/armv7e-m/libc.a(lib_a-fvwrite.o) (_realloc_r)
/usr/lib/gcc/arm-none-eabi/4.9.3/../../../arm-none-eabi/lib/armv7e-m/libc.a(lib_a-s_fpclassify.o)
                              /usr/lib/gcc/arm-none-eabi/4.9.3/../../../arm-none-eabi/lib/armv7e-m/libc.a(lib_a-strtod.o) (__fpclassifyd)
/usr/lib/gcc/arm-none-eabi/4.9.3/../../../arm-none-eabi/lib/armv7e-m/libc.a(lib_a-sf_nan.o)
                              /usr/lib/gcc/arm-none-eabi/4.9.3/../../../arm-none-eabi/lib/armv7e-m/libc.a(lib_a-strtod.o) (nanf)
/usr/lib/gcc/arm-none-eabi/4.9.3/../../../arm-none-eabi/lib/armv7e-m/libc.a(lib_a-strcmp.o)
                              /usr/lib/gcc/arm-none-eabi/4.9.3/../../../arm-none-eabi/lib/armv7e-m/libc.a(lib_a-locale.o) (strcmp)
/usr/lib/gcc/arm-none-eabi/4.9.3/../../../arm-none-eabi/lib/armv7e-m/libc.a(lib_a-vfiprintf.o)
                              /usr/lib/gcc/arm-none-eabi/4.9.3/../../../arm-none-eabi/lib/armv7e-m/libc.a(lib_a-vfprintf.o) (__sprint_r)
/usr/lib/gcc/arm-none-eabi/4.9.3/../../../arm-none-eabi/lib/armv7e-m/libc.a(lib_a-callocr.o)
                              /usr/lib/gcc/arm-none-eabi/4.9.3/../../../arm-none-eabi/lib/armv7e-m/libc.a(lib_a-mprec.o) (_calloc_r)
/usr/lib/gcc/arm-none-eabi/4.9.3/../../../arm-none-eabi/lib/armv7e-m/libc.a(lib_a-fputwc.o)
                              /usr/lib/gcc/arm-none-eabi/4.9.3/../../../arm-none-eabi/lib/armv7e-m/libc.a(lib_a-vfiprintf.o) (_fputwc_r)
/usr/lib/gcc/arm-none-eabi/4.9.3/../../../arm-none-eabi/lib/armv7e-m/libc.a(lib_a-fstatr.o)
                              /usr/lib/gcc/arm-none-eabi/4.9.3/../../../arm-none-eabi/lib/armv7e-m/libc.a(lib_a-makebuf.o) (_fstat_r)
/usr/lib/gcc/arm-none-eabi/4.9.3/../../../arm-none-eabi/lib/armv7e-m/libc.a(lib_a-isattyr.o)
                              /usr/lib/gcc/arm-none-eabi/4.9.3/../../../arm-none-eabi/lib/armv7e-m/libc.a(lib_a-makebuf.o) (_isatty_r)
/usr/lib/gcc/arm-none-eabi/4.9.3/../../../arm-none-eabi/lib/armv7e-m/libc.a(lib_a-wbuf.o)
                              /usr/lib/gcc/arm-none-eabi/4.9.3/../../../arm-none-eabi/lib/armv7e-m/libc.a(lib_a-fputwc.o) (__swbuf_r)
/usr/lib/gcc/arm-none-eabi/4.9.3/../../../arm-none-eabi/lib/armv7e-m/libc.a(lib_a-wcrtomb.o)
                              /usr/lib/gcc/arm-none-eabi/4.9.3/../../../arm-none-eabi/lib/armv7e-m/libc.a(lib_a-fputwc.o) (_wcrtomb_r)
/usr/lib/gcc/arm-none-eabi/4.9.3/../../../arm-none-eabi/lib/armv7e-m/libc.a(lib_a-wctomb_r.o)
                              /usr/lib/gcc/arm-none-eabi/4.9.3/../../../arm-none-eabi/lib/armv7e-m/libc.a(lib_a-wcrtomb.o) (__wctomb)
/usr/lib/gcc/arm-none-eabi/4.9.3/armv7e-m/libgcc.a(_arm_cmpdf2.o)
                              /usr/lib/gcc/arm-none-eabi/4.9.3/../../../arm-none-eabi/lib/armv7e-m/libc.a(lib_a-strtod.o) (__aeabi_dcmpeq)
/usr/lib/gcc/arm-none-eabi/4.9.3/armv7e-m/libgcc.a(_arm_fixdfsi.o)
                              /usr/lib/gcc/arm-none-eabi/4.9.3/../../../arm-none-eabi/lib/armv7e-m/libc.a(lib_a-strtod.o) (__aeabi_d2iz)

Allocating common symbols
Common symbol       size              file

DMA_InitStructure_SIO_TX
                    0x3c              build/usart.o
ADC_result          0xc               build/adc.o
errno               0x4               /usr/lib/gcc/arm-none-eabi/4.9.3/../../../arm-none-eabi/lib/armv7e-m/libc.a(lib_a-reent.o)
subTIM_period       0x2               build/adc.o
rxb                 0x48              build/usart.o
duty_int_routine    0x4               build/adc.o
txb                 0x48              build/usart.o
subTIM_value        0x4               build/adc.o
TIM_Period_PWM_motor
                    0x2               build/config_PWM.o
init_heap_end       0x4               build/syscall.o

Memory Configuration

Name             Origin             Length             Attributes
RAM              0x0000000020000000 0x0000000000020000 xrw
RLOG             0x0000000010000000 0x0000000000010000 xrw
VECTOR           0x0000000008000000 0x0000000000004000
MAZE             0x0000000008004000 0x0000000000004000 r
PARAMETER        0x0000000008008000 0x0000000000004000 r
FLASH            0x000000000800c000 0x0000000000034000 xr
FLASHst          0x0000000008040000 0x0000000000020000 xr
RLOG_FLASH1      0x0000000008060000 0x0000000000020000 r
RLOG_FLASH2      0x0000000008080000 0x0000000000020000 r
RLOG_FLASH3      0x00000000080a0000 0x0000000000020000 r
FLOG1            0x00000000080c0000 0x0000000000020000 r
FLOG2            0x00000000080e0000 0x0000000000020000 r
*default*        0x0000000000000000 0xffffffffffffffff

Linker script and memory map

LOAD /usr/lib/gcc/arm-none-eabi/4.9.3/../../../arm-none-eabi/lib/armv7e-m/libm.a
LOAD /usr/lib/gcc/arm-none-eabi/4.9.3/../../../arm-none-eabi/lib/armv7e-m/libc.a
LOAD /usr/lib/gcc/arm-none-eabi/4.9.3/armv7e-m/libgcc.a
LOAD ../static/build/static.elf
LOAD ../Libraries/CMSIS/Device/ST/STM32F4xx/Source/Templates/gcc_ride7/startup_stm32f4xx.o
LOAD build/config_clock_flash.o
LOAD build/general.o
LOAD build/config_time.o
LOAD build/stm32f4xx_it.o
LOAD build/config_PWM.o
LOAD build/syscall.o
LOAD build/config_encoder.o
LOAD build/date_str.o
LOAD build/usart.o
LOAD build/startup.o
LOAD build/adc.o
LOAD build/prm_variable.o
LOAD build/module_test.o
LOAD build/prm_interface.o
LOAD build/main.o
LOAD ../Libraries/libstm32.a
START GROUP
LOAD /usr/lib/gcc/arm-none-eabi/4.9.3/armv7e-m/libgcc.a
LOAD /usr/lib/gcc/arm-none-eabi/4.9.3/../../../arm-none-eabi/lib/armv7e-m/libc.a
END GROUP
                0x0000000000001800                _Minimum_Stack_Size = 0x1800
                0x0000000000020000                _RAM_SIZE = 0x20000
                0x0000000020020000                _estack = (0x20000000 + _RAM_SIZE)
                0x0000000008004000                _FLASH_MAZE_START = ORIGIN (MAZE)
                0x0000000000004000                _FLASH_MAZE_SIZE = LENGTH (MAZE)
                0x0000000008008000                _FLASH_PRM_START = ORIGIN (PARAMETER)
                0x0000000000004000                _FLASH_PRM_SIZE = LENGTH (PARAMETER)
                0x0000000008060000                _RLOG_FLASH1_START = ORIGIN (RLOG_FLASH1)
                0x0000000000020000                _RLOG_FLASH1_SIZE = LENGTH (RLOG_FLASH1)
                0x0000000008080000                _RLOG_FLASH2_START = ORIGIN (RLOG_FLASH2)
                0x0000000000020000                _RLOG_FLASH2_SIZE = LENGTH (RLOG_FLASH2)
                0x00000000080a0000                _RLOG_FLASH3_START = ORIGIN (RLOG_FLASH3)
                0x0000000000020000                _RLOG_FLASH3_SIZE = LENGTH (RLOG_FLASH3)
                0x00000000080c0000                _FLOG1_START = ORIGIN (FLOG1)
                0x0000000000020000                _FLOG1_SIZE = LENGTH (FLOG1)
                0x00000000080e0000                _FLOG2_START = ORIGIN (FLOG2)
                0x0000000000020000                _FLOG2_SIZE = LENGTH (FLOG2)
                0x0000000000000008                _FLASH_MAZE_SECTOR = 0x8
                0x0000000000000010                _FLASH_PRM_SECTOR = 0x10
                0x0000000000000038                _RLOG_FLASH1_SECTOR = 0x38
                0x0000000000000040                _RLOG_FLASH2_SECTOR = 0x40
                0x0000000000000048                _RLOG_FLASH3_SECTOR = 0x48
                0x0000000000000050                _FLOG1_SECTOR = 0x50
                0x0000000000000058                _FLOG2_SECTOR = 0x58
                0x0000000008000000                start = ORIGIN (VECTOR)

.isr_vector     0x0000000008000000      0x188
                0x0000000008000000                . = ALIGN (0x4)
 *(.isr_vector)
 .isr_vector    0x0000000008000000      0x188 ../Libraries/CMSIS/Device/ST/STM32F4xx/Source/Templates/gcc_ride7/startup_stm32f4xx.o
                0x0000000008000000                g_pfnVectors
                0x0000000008000188                . = ALIGN (0x4)

.init_array     0x0000000008000188        0x0
                0x0000000008000188                . = ALIGN (0x4)
                0x0000000008000188                __init_array_start = ABSOLUTE (.)
 *(SORT(.init_array.*))
 *(.init_array)
                0x0000000008000188                . = ALIGN (0x4)
                0x0000000008000188                __init_array_end = ABSOLUTE (.)

.ARM.extab      0x000000000800c000        0x0
 *(.ARM.extab* .gnu.linkonce.armextab.*)
 .ARM.extab     0x000000000800c000        0x0 /usr/lib/gcc/arm-none-eabi/4.9.3/armv7e-m/libgcc.a(_divdi3.o)
 .ARM.extab     0x000000000800c000        0x0 /usr/lib/gcc/arm-none-eabi/4.9.3/armv7e-m/libgcc.a(_udivdi3.o)

.ARM.exidx      0x000000000800c000        0x8
 *(.ARM.exidx* .gnu.linkonce.armexidx.*)
 .ARM.exidx     0x000000000800c000        0x8 /usr/lib/gcc/arm-none-eabi/4.9.3/armv7e-m/libgcc.a(_divdi3.o)
 .ARM.exidx     0x000000000800c008        0x0 /usr/lib/gcc/arm-none-eabi/4.9.3/armv7e-m/libgcc.a(_udivdi3.o)
                                          0x8 (size before relaxing)

.text           0x000000000800c020     0xccc8
                0x000000000800c020                . = ALIGN (0x4)
 *(.text)
 .text          0x000000000800c020       0x14 ../Libraries/CMSIS/Device/ST/STM32F4xx/Source/Templates/gcc_ride7/startup_stm32f4xx.o
 .text          0x000000000800c034       0x90 build/config_clock_flash.o
                0x000000000800c034                CLOCK_FLASH_config
                0x000000000800c0a4                erase_flash_sector
                0x000000000800c0b8                write_1byte_to_flash
                0x000000000800c0bc                write_2bytes_to_flash
                0x000000000800c0c0                write_4bytes_to_flash
 .text          0x000000000800c0c4       0xe4 build/general.o
                0x000000000800c0c4                General_Config
                0x000000000800c140                Led0
                0x000000000800c15c                Led1
                0x000000000800c178                Sw0
                0x000000000800c190                Sw1
 .text          0x000000000800c1a8       0xe0 build/config_time.o
                0x000000000800c1a8                wait
                0x000000000800c218                start_timer
                0x000000000800c230                get_time
 .text          0x000000000800c288       0x24 build/stm32f4xx_it.o
                0x000000000800c288                NMI_Handler
                0x000000000800c28c                HardFault_Handler
                0x000000000800c290                MemManage_Handler
                0x000000000800c294                BusFault_Handler
                0x000000000800c298                UsageFault_Handler
                0x000000000800c29c                SVC_Handler
                0x000000000800c2a0                DebugMon_Handler
                0x000000000800c2a4                PendSV_Handler
                0x000000000800c2a8                SysTick_Handler
 .text          0x000000000800c2ac      0x3b0 build/config_PWM.o
                0x000000000800c2ac                TIM_config_for_PWM_motor
                0x000000000800c564                set_duty_PWM_motorA
                0x000000000800c5e0                set_duty_PWM_motorB
 .text          0x000000000800c65c      0x130 build/syscall.o
                0x000000000800c65c                _exit
                0x000000000800c660                _close
                0x000000000800c668                _execve
                0x000000000800c678                _fork
                0x000000000800c688                _fstat
                0x000000000800c694                _getpid
                0x000000000800c698                _isatty
                0x000000000800c69c                _kill
                0x000000000800c6ac                _link
                0x000000000800c6bc                _lseek
                0x000000000800c6c0                _open
                0x000000000800c6c8                _read
                0x000000000800c6fc                _sbrk
                0x000000000800c738                _astat
                0x000000000800c744                _unlink
                0x000000000800c754                _wait
                0x000000000800c764                _write
 .text          0x000000000800c78c      0x118 build/config_encoder.o
                0x000000000800c78c                TIM_config_for_encoder1
                0x000000000800c7fc                TIM_config_for_encoder2
                0x000000000800c86c                get_cnt_encoder1
                0x000000000800c87c                get_cnt_encoder2
                0x000000000800c88c                set_cnt_encoder1
                0x000000000800c898                set_cnt_encoder2
 .text          0x000000000800c8a4        0x0 build/date_str.o
 .text          0x000000000800c8a4      0x250 build/usart.o
                0x000000000800c8a4                USART1_Conf
                0x000000000800c9b0                outbyte
                0x000000000800ca90                inkey
                0x000000000800cacc                clear_rxb
                0x000000000800cad8                inbyte
 .text          0x000000000800caf4       0xf0 build/startup.o
                0x000000000800caf4                startup
 .text          0x000000000800cbe4      0x474 build/adc.o
                0x000000000800cbe4                ADC_Conf
                0x000000000800ce8c                ADC_IRQ_Conf
                0x000000000800cf4c                int_pre_process
                0x000000000800cfc4                duty_here
                0x000000000800cff4                int_post_process
                0x000000000800d014                stop_periodic_interrupt
                0x000000000800d024                restart_periodic_interrupt
                0x000000000800d048                DMA2_Stream0_IRQHandler
 .text          0x000000000800d058       0x1c build/prm_variable.o
                0x000000000800d058                init_prm()
 .text          0x000000000800d074      0x1f8 build/module_test.o
                0x000000000800d074                module_test_low_level()
 .text          0x000000000800d26c      0xa10 build/prm_interface.o
                0x000000000800d2b4                load_prms()
                0x000000000800d338                save_prms()
                0x000000000800d454                verify_prms()
                0x000000000800d538                print_prms()
                0x000000000800d5cc                put_ESC_move_right(int)
                0x000000000800d5d4                put_ESC_move_left(int)
                0x000000000800d5dc                insert_char(char*, int*, char)
                0x000000000800d648                delete_char(char*, int*)
                0x000000000800d6ac                show_help_edit_prm()
                0x000000000800d6f0                edit_prms()
 .text          0x000000000800dc7c        0x0 build/main.o
 .text          0x000000000800dc7c      0x174 ../Libraries/libstm32.a(system_stm32f4xx.o)
                0x000000000800dc7c                SystemInit
                0x000000000800dd7c                SystemCoreClockUpdate
 .text          0x000000000800ddf0      0x274 ../Libraries/libstm32.a(stm32f4xx_gpio.o)
                0x000000000800ddf0                GPIO_DeInit
                0x000000000800df08                GPIO_Init
                0x000000000800dfbc                GPIO_StructInit
                0x000000000800dfd0                GPIO_PinLockConfig
                0x000000000800dff4                GPIO_ReadInputDataBit
                0x000000000800e000                GPIO_ReadInputData
                0x000000000800e008                GPIO_ReadOutputDataBit
                0x000000000800e014                GPIO_ReadOutputData
                0x000000000800e01c                GPIO_SetBits
                0x000000000800e020                GPIO_ResetBits
                0x000000000800e024                GPIO_WriteBit
                0x000000000800e030                GPIO_Write
                0x000000000800e034                GPIO_ToggleBits
                0x000000000800e03c                GPIO_PinAFConfig
 .text          0x000000000800e064      0x390 ../Libraries/libstm32.a(stm32f4xx_dma.o)
                0x000000000800e064                DMA_DeInit
                0x000000000800e194                DMA_Init
                0x000000000800e204                DMA_StructInit
                0x000000000800e228                DMA_Cmd
                0x000000000800e23c                DMA_PeriphIncOffsetSizeConfig
                0x000000000800e250                DMA_FlowControllerConfig
                0x000000000800e264                DMA_SetCurrDataCounter
                0x000000000800e268                DMA_GetCurrDataCounter
                0x000000000800e270                DMA_DoubleBufferModeConfig
                0x000000000800e288                DMA_DoubleBufferModeCmd
                0x000000000800e29c                DMA_MemoryTargetConfig
                0x000000000800e2a8                DMA_GetCurrentMemoryTarget
                0x000000000800e2b0                DMA_GetCmdStatus
                0x000000000800e2b8                DMA_GetFIFOStatus
                0x000000000800e2c0                DMA_GetFlagStatus
                0x000000000800e2fc                DMA_ClearFlag
                0x000000000800e330                DMA_ITConfig
                0x000000000800e370                DMA_GetITStatus
                0x000000000800e3c0                DMA_ClearITPendingBit
 .text          0x000000000800e3f4      0x478 ../Libraries/libstm32.a(stm32f4xx_rcc.o)
                0x000000000800e3f4                RCC_DeInit
                0x000000000800e428                RCC_HSEConfig
                0x000000000800e438                RCC_WaitForHSEStartUp
                0x000000000800e46c                RCC_AdjustHSICalibrationValue
                0x000000000800e480                RCC_HSICmd
                0x000000000800e48c                RCC_LSEConfig
                0x000000000800e4ac                RCC_LSICmd
                0x000000000800e4b8                RCC_PLLConfig
                0x000000000800e4dc                RCC_PLLCmd
                0x000000000800e4e8                RCC_PLLI2SConfig
                0x000000000800e4fc                RCC_PLLI2SCmd
                0x000000000800e508                RCC_ClockSecuritySystemCmd
                0x000000000800e514                RCC_MCO1Config
                0x000000000800e528                RCC_MCO2Config
                0x000000000800e53c                RCC_SYSCLKConfig
                0x000000000800e550                RCC_GetSYSCLKSource
                0x000000000800e560                RCC_HCLKConfig
                0x000000000800e574                RCC_PCLK1Config
                0x000000000800e588                RCC_PCLK2Config
                0x000000000800e59c                RCC_GetClocksFreq
                0x000000000800e634                RCC_RTCCLKConfig
                0x000000000800e664                RCC_RTCCLKCmd
                0x000000000800e670                RCC_BackupResetCmd
                0x000000000800e67c                RCC_I2SCLKConfig
                0x000000000800e688                RCC_AHB1PeriphClockCmd
                0x000000000800e6a0                RCC_AHB2PeriphClockCmd
                0x000000000800e6b8                RCC_AHB3PeriphClockCmd
                0x000000000800e6d0                RCC_APB1PeriphClockCmd
                0x000000000800e6e8                RCC_APB2PeriphClockCmd
                0x000000000800e700                RCC_AHB1PeriphResetCmd
                0x000000000800e718                RCC_AHB2PeriphResetCmd
                0x000000000800e730                RCC_AHB3PeriphResetCmd
                0x000000000800e748                RCC_APB1PeriphResetCmd
                0x000000000800e760                RCC_APB2PeriphResetCmd
                0x000000000800e778                RCC_AHB1PeriphClockLPModeCmd
                0x000000000800e790                RCC_AHB2PeriphClockLPModeCmd
                0x000000000800e7a8                RCC_AHB3PeriphClockLPModeCmd
                0x000000000800e7c0                RCC_APB1PeriphClockLPModeCmd
                0x000000000800e7d8                RCC_APB2PeriphClockLPModeCmd
                0x000000000800e7f0                RCC_ITConfig
                0x000000000800e808                RCC_GetFlagStatus
                0x000000000800e83c                RCC_ClearFlag
                0x000000000800e84c                RCC_GetITStatus
                0x000000000800e860                RCC_ClearITPendingBit
 .text          0x000000000800e86c      0x418 ../Libraries/libstm32.a(stm32f4xx_flash.o)
                0x000000000800e86c                FLASH_SetLatency
                0x000000000800e878                FLASH_PrefetchBufferCmd
                0x000000000800e894                FLASH_InstructionCacheCmd
                0x000000000800e8b0                FLASH_DataCacheCmd
                0x000000000800e8cc                FLASH_InstructionCacheReset
                0x000000000800e8dc                FLASH_DataCacheReset
                0x000000000800e8ec                FLASH_Unlock
                0x000000000800e90c                FLASH_Lock
                0x000000000800e91c                FLASH_OB_Unlock
                0x000000000800e93c                FLASH_OB_Lock
                0x000000000800e94c                FLASH_OB_BORConfig
                0x000000000800e964                FLASH_OB_GetUser
                0x000000000800e974                FLASH_OB_GetWRP
                0x000000000800e980                FLASH_OB_GetRDP
                0x000000000800e990                FLASH_OB_GetBOR
                0x000000000800e9a0                FLASH_ITConfig
                0x000000000800e9b8                FLASH_GetFlagStatus
                0x000000000800e9cc                FLASH_ClearFlag
                0x000000000800e9d8                FLASH_GetStatus
                0x000000000800ea0c                FLASH_WaitForLastOperation
                0x000000000800ea34                FLASH_EraseSector
                0x000000000800eaa8                FLASH_EraseAllSectors
                0x000000000800eb04                FLASH_ProgramDoubleWord
                0x000000000800eb48                FLASH_ProgramWord
                0x000000000800eb88                FLASH_ProgramHalfWord
                0x000000000800ebc8                FLASH_ProgramByte
                0x000000000800ec04                FLASH_OB_WRPConfig
                0x000000000800ec30                FLASH_OB_RDPConfig
                0x000000000800ec48                FLASH_OB_UserConfig
                0x000000000800ec70                FLASH_OB_Launch
 .text          0x000000000800ec84       0xc8 ../Libraries/libstm32.a(misc.o)
                0x000000000800ec84                NVIC_PriorityGroupConfig
                0x000000000800ec98                NVIC_Init
                0x000000000800ed08                NVIC_SetVectorTable
                0x000000000800ed1c                NVIC_SystemLPConfig
                0x000000000800ed34                SysTick_CLKSourceConfig
 .text          0x000000000800ed4c      0x434 ../Libraries/libstm32.a(stm32f4xx_usart.o)
                0x000000000800ed4c                USART_DeInit
                0x000000000800ee14                USART_Init
                0x000000000800eed8                USART_StructInit
                0x000000000800eef0                USART_ClockInit
                0x000000000800ef14                USART_ClockStructInit
                0x000000000800ef20                USART_Cmd
                0x000000000800ef3c                USART_SetPrescaler
                0x000000000800ef50                USART_OverSampling8Cmd
                0x000000000800ef6c                USART_OneBitMethodCmd
                0x000000000800ef88                USART_SendData
                0x000000000800ef90                USART_ReceiveData
                0x000000000800ef98                USART_SetAddress
                0x000000000800efb0                USART_ReceiverWakeUpCmd
                0x000000000800efcc                USART_WakeUpConfig
                0x000000000800efe4                USART_LINBreakDetectLengthConfig
                0x000000000800effc                USART_LINCmd
                0x000000000800f018                USART_SendBreak
                0x000000000800f024                USART_HalfDuplexCmd
                0x000000000800f040                USART_SetGuardTime
                0x000000000800f054                USART_SmartCardCmd
                0x000000000800f070                USART_SmartCardNACKCmd
                0x000000000800f08c                USART_IrDAConfig
                0x000000000800f0a4                USART_IrDACmd
                0x000000000800f0c0                USART_DMACmd
                0x000000000800f0d4                USART_ITConfig
                0x000000000800f110                USART_GetFlagStatus
                0x000000000800f11c                USART_ClearFlag
                0x000000000800f124                USART_GetITStatus
                0x000000000800f170                USART_ClearITPendingBit
 .text          0x000000000800f180      0x3ac ../Libraries/libstm32.a(stm32f4xx_adc.o)
                0x000000000800f180                ADC_DeInit
                0x000000000800f19c                ADC_Init
                0x000000000800f1ec                ADC_StructInit
                0x000000000800f200                ADC_CommonInit
                0x000000000800f228                ADC_CommonStructInit
                0x000000000800f234                ADC_Cmd
                0x000000000800f248                ADC_AnalogWatchdogCmd
                0x000000000800f258                ADC_AnalogWatchdogThresholdsConfig
                0x000000000800f260                ADC_AnalogWatchdogSingleChannelConfig
                0x000000000800f26c                ADC_TempSensorVrefintCmd
                0x000000000800f288                ADC_VBATCmd
                0x000000000800f2a4                ADC_RegularChannelConfig
                0x000000000800f330                ADC_SoftwareStartConv
                0x000000000800f33c                ADC_GetSoftwareStartConvStatus
                0x000000000800f344                ADC_EOCOnEachRegularChannelCmd
                0x000000000800f358                ADC_ContinuousModeCmd
                0x000000000800f36c                ADC_DiscModeChannelCountConfig
                0x000000000800f37c                ADC_DiscModeCmd
                0x000000000800f390                ADC_GetConversionValue
                0x000000000800f398                ADC_GetMultiModeConversionValue
                0x000000000800f3a4                ADC_DMACmd
                0x000000000800f3b8                ADC_DMARequestAfterLastTransferCmd
                0x000000000800f3cc                ADC_MultiModeDMARequestAfterLastTransferCmd
                0x000000000800f3e8                ADC_InjectedChannelConfig
                0x000000000800f440                ADC_InjectedSequencerLengthConfig
                0x000000000800f450                ADC_SetInjectedOffset
                0x000000000800f468                ADC_ExternalTrigInjectedConvConfig
                0x000000000800f474                ADC_ExternalTrigInjectedConvEdgeConfig
                0x000000000800f480                ADC_SoftwareStartInjectedConv
                0x000000000800f48c                ADC_GetSoftwareStartInjectedConvCmdStatus
                0x000000000800f494                ADC_AutoInjectedConvCmd
                0x000000000800f4a8                ADC_InjectedDiscModeCmd
                0x000000000800f4bc                ADC_GetInjectedConversionValue
                0x000000000800f4d8                ADC_ITConfig
                0x000000000800f4f4                ADC_GetFlagStatus
                0x000000000800f500                ADC_ClearFlag
                0x000000000800f508                ADC_GetITStatus
                0x000000000800f524                ADC_ClearITPendingBit
 .text          0x000000000800f52c      0xdcc ../Libraries/libstm32.a(stm32f4xx_tim.o)
                0x000000000800f52c                TIM_DeInit
                0x000000000800f6e4                TIM_TimeBaseInit
                0x000000000800f77c                TIM_TimeBaseStructInit
                0x000000000800f790                TIM_PrescalerConfig
                0x000000000800f798                TIM_CounterModeConfig
                0x000000000800f7a8                TIM_SetCounter
                0x000000000800f7ac                TIM_SetAutoreload
                0x000000000800f7b0                TIM_GetCounter
                0x000000000800f7b4                TIM_GetPrescaler
                0x000000000800f7bc                TIM_UpdateDisableConfig
                0x000000000800f7d8                TIM_UpdateRequestConfig
                0x000000000800f7f4                TIM_ARRPreloadConfig
                0x000000000800f810                TIM_SelectOnePulseMode
                0x000000000800f828                TIM_SetClockDivision
                0x000000000800f840                TIM_Cmd
                0x000000000800f85c                TIM_OC1Init
                0x000000000800f8e0                TIM_OC2Init
                0x000000000800f970                TIM_OC3Init
                0x000000000800fa00                TIM_OC4Init
                0x000000000800fa74                TIM_OCStructInit
                0x000000000800fa88                TIM_SelectOCxM
                0x000000000800fad8                TIM_SetCompare1
                0x000000000800fadc                TIM_SetCompare2
                0x000000000800fae0                TIM_SetCompare3
                0x000000000800fae4                TIM_SetCompare4
                0x000000000800fae8                TIM_ForcedOC1Config
                0x000000000800faf8                TIM_ForcedOC2Config
                0x000000000800fb0c                TIM_ForcedOC3Config
                0x000000000800fb1c                TIM_ForcedOC4Config
                0x000000000800fb30                TIM_OC1PreloadConfig
                0x000000000800fb40                TIM_OC2PreloadConfig
                0x000000000800fb54                TIM_OC3PreloadConfig
                0x000000000800fb64                TIM_OC4PreloadConfig
                0x000000000800fb78                TIM_OC1FastConfig
                0x000000000800fb88                TIM_OC2FastConfig
                0x000000000800fb9c                TIM_OC3FastConfig
                0x000000000800fbac                TIM_OC4FastConfig
                0x000000000800fbc0                TIM_ClearOC1Ref
                0x000000000800fbd0                TIM_ClearOC2Ref
                0x000000000800fbe0                TIM_ClearOC3Ref
                0x000000000800fbf0                TIM_ClearOC4Ref
                0x000000000800fc00                TIM_OC1PolarityConfig
                0x000000000800fc10                TIM_OC1NPolarityConfig
                0x000000000800fc20                TIM_OC2PolarityConfig
                0x000000000800fc34                TIM_OC2NPolarityConfig
                0x000000000800fc48                TIM_OC3PolarityConfig
                0x000000000800fc5c                TIM_OC3NPolarityConfig
                0x000000000800fc70                TIM_OC4PolarityConfig
                0x000000000800fc84                TIM_CCxCmd
                0x000000000800fca4                TIM_CCxNCmd
                0x000000000800fcc4                TIM_ICInit
                0x000000000800fe2c                TIM_ICStructInit
                0x000000000800fe3c                TIM_PWMIConfig
                0x000000000800ff94                TIM_GetCapture1
                0x000000000800ff98                TIM_GetCapture2
                0x000000000800ff9c                TIM_GetCapture3
                0x000000000800ffa0                TIM_GetCapture4
                0x000000000800ffa4                TIM_SetIC1Prescaler
                0x000000000800ffbc                TIM_SetIC2Prescaler
                0x000000000800ffd8                TIM_SetIC3Prescaler
                0x000000000800fff0                TIM_SetIC4Prescaler
                0x000000000801000c                TIM_BDTRConfig
                0x0000000008010034                TIM_BDTRStructInit
                0x0000000008010048                TIM_CtrlPWMOutputs
                0x0000000008010068                TIM_SelectCOM
                0x0000000008010084                TIM_CCPreloadControl
                0x00000000080100a0                TIM_ITConfig
                0x00000000080100b4                TIM_GenerateEvent
                0x00000000080100b8                TIM_GetFlagStatus
                0x00000000080100c4                TIM_ClearFlag
                0x00000000080100cc                TIM_GetITStatus
                0x00000000080100e4                TIM_ClearITPendingBit
                0x00000000080100ec                TIM_DMAConfig
                0x00000000080100f4                TIM_DMACmd
                0x0000000008010108                TIM_SelectCCDMA
                0x0000000008010124                TIM_InternalClockConfig
                0x0000000008010134                TIM_ITRxExternalClockConfig
                0x0000000008010150                TIM_TIxExternalClockConfig
                0x00000000080101d8                TIM_ETRClockMode1Config
                0x0000000008010200                TIM_ETRClockMode2Config
                0x0000000008010224                TIM_SelectInputTrigger
                0x0000000008010234                TIM_SelectOutputTrigger
                0x000000000801024c                TIM_SelectSlaveMode
                0x0000000008010264                TIM_SelectMasterSlaveMode
                0x000000000801027c                TIM_ETRConfig
                0x0000000008010294                TIM_EncoderInterfaceConfig
                0x00000000080102d4                TIM_SelectHallSensor
                0x00000000080102f0                TIM_RemapConfig
 .text          0x00000000080102f8      0x370 /usr/lib/gcc/arm-none-eabi/4.9.3/armv7e-m/libgcc.a(_arm_addsubdf3.o)
                0x00000000080102f8                __aeabi_drsub
                0x0000000008010300                __aeabi_dsub
                0x0000000008010300                __subdf3
                0x0000000008010304                __adddf3
                0x0000000008010304                __aeabi_dadd
                0x000000000801057c                __aeabi_ui2d
                0x000000000801057c                __floatunsidf
                0x000000000801059c                __floatsidf
                0x000000000801059c                __aeabi_i2d
                0x00000000080105c0                __extendsfdf2
                0x00000000080105c0                __aeabi_f2d
                0x00000000080105fc                __aeabi_ul2d
                0x00000000080105fc                __floatundidf
                0x000000000801060c                __floatdidf
                0x000000000801060c                __aeabi_l2d
 .text          0x0000000008010668       0xa0 /usr/lib/gcc/arm-none-eabi/4.9.3/armv7e-m/libgcc.a(_arm_truncdfsf2.o)
                0x0000000008010668                __aeabi_d2f
                0x0000000008010668                __truncdfsf2
 .text          0x0000000008010708      0x21c /usr/lib/gcc/arm-none-eabi/4.9.3/armv7e-m/libgcc.a(_arm_addsubsf3.o)
                0x0000000008010708                __aeabi_frsub
                0x0000000008010710                __subsf3
                0x0000000008010710                __aeabi_fsub
                0x0000000008010714                __aeabi_fadd
                0x0000000008010714                __addsf3
                0x0000000008010874                __aeabi_ui2f
                0x0000000008010874                __floatunsisf
                0x000000000801087c                __aeabi_i2f
                0x000000000801087c                __floatsisf
                0x0000000008010898                __floatundisf
                0x0000000008010898                __aeabi_ul2f
                0x00000000080108a8                __floatdisf
                0x00000000080108a8                __aeabi_l2f
 .text          0x0000000008010924       0x30 /usr/lib/gcc/arm-none-eabi/4.9.3/armv7e-m/libgcc.a(_aeabi_uldivmod.o)
                0x0000000008010924                __aeabi_uldivmod
 .text          0x0000000008010954       0x4c /usr/lib/gcc/arm-none-eabi/4.9.3/armv7e-m/libgcc.a(_fixunssfdi.o)
                0x0000000008010954                __aeabi_f2ulz
                0x0000000008010954                __fixunssfdi
 .text          0x00000000080109a0       0x60 /usr/lib/gcc/arm-none-eabi/4.9.3/armv7e-m/libgcc.a(bpabi.o)
                0x00000000080109a0                __gnu_ldivmod_helper
                0x00000000080109d0                __gnu_uldivmod_helper
 .text          0x0000000008010a00        0x4 /usr/lib/gcc/arm-none-eabi/4.9.3/armv7e-m/libgcc.a(_dvmd_tls.o)
                0x0000000008010a00                __aeabi_ldiv0
                0x0000000008010a00                __aeabi_idiv0
 .text          0x0000000008010a04      0x424 /usr/lib/gcc/arm-none-eabi/4.9.3/armv7e-m/libgcc.a(_arm_muldivdf3.o)
                0x0000000008010a04                __aeabi_dmul
                0x0000000008010a04                __muldf3
                0x0000000008010c58                __aeabi_ddiv
                0x0000000008010c58                __divdf3
 .text          0x0000000008010e28       0x40 /usr/lib/gcc/arm-none-eabi/4.9.3/armv7e-m/libgcc.a(_arm_fixunsdfsi.o)
                0x0000000008010e28                __fixunsdfsi
                0x0000000008010e28                __aeabi_d2uiz
 .text          0x0000000008010e68      0x29c /usr/lib/gcc/arm-none-eabi/4.9.3/armv7e-m/libgcc.a(_divdi3.o)
                0x0000000008010e68                __divdi3
 .text          0x0000000008011104      0x26c /usr/lib/gcc/arm-none-eabi/4.9.3/armv7e-m/libgcc.a(_udivdi3.o)
                0x0000000008011104                __udivdi3
 .text          0x0000000008011370        0x0 /usr/lib/gcc/arm-none-eabi/4.9.3/../../../arm-none-eabi/lib/armv7e-m/libc.a(lib_a-abort.o)
 .text          0x0000000008011370        0x0 /usr/lib/gcc/arm-none-eabi/4.9.3/../../../arm-none-eabi/lib/armv7e-m/libc.a(lib_a-atof.o)
 .text          0x0000000008011370        0x0 /usr/lib/gcc/arm-none-eabi/4.9.3/../../../arm-none-eabi/lib/armv7e-m/libc.a(lib_a-atoi.o)
 .text          0x0000000008011370        0x0 /usr/lib/gcc/arm-none-eabi/4.9.3/../../../arm-none-eabi/lib/armv7e-m/libc.a(lib_a-fflush.o)
 .text          0x0000000008011370        0x0 /usr/lib/gcc/arm-none-eabi/4.9.3/../../../arm-none-eabi/lib/armv7e-m/libc.a(lib_a-findfp.o)
 .text          0x0000000008011370        0x0 /usr/lib/gcc/arm-none-eabi/4.9.3/../../../arm-none-eabi/lib/armv7e-m/libc.a(lib_a-freer.o)
 .text          0x0000000008011370        0x0 /usr/lib/gcc/arm-none-eabi/4.9.3/../../../arm-none-eabi/lib/armv7e-m/libc.a(lib_a-fwalk.o)
 .text          0x0000000008011370        0x0 /usr/lib/gcc/arm-none-eabi/4.9.3/../../../arm-none-eabi/lib/armv7e-m/libc.a(lib_a-impure.o)
 .text          0x0000000008011370        0x0 /usr/lib/gcc/arm-none-eabi/4.9.3/../../../arm-none-eabi/lib/armv7e-m/libc.a(lib_a-mallocr.o)
 .text          0x0000000008011370        0x0 /usr/lib/gcc/arm-none-eabi/4.9.3/../../../arm-none-eabi/lib/armv7e-m/libc.a(lib_a-memset.o)
 .text          0x0000000008011370        0x0 /usr/lib/gcc/arm-none-eabi/4.9.3/../../../arm-none-eabi/lib/armv7e-m/libc.a(lib_a-mlock.o)
 .text          0x0000000008011370        0x0 /usr/lib/gcc/arm-none-eabi/4.9.3/../../../arm-none-eabi/lib/armv7e-m/libc.a(lib_a-printf.o)
 .text          0x0000000008011370        0x0 /usr/lib/gcc/arm-none-eabi/4.9.3/../../../arm-none-eabi/lib/armv7e-m/libc.a(lib_a-puts.o)
 .text          0x0000000008011370        0x0 /usr/lib/gcc/arm-none-eabi/4.9.3/../../../arm-none-eabi/lib/armv7e-m/libc.a(lib_a-reent.o)
 .text          0x0000000008011370        0x0 /usr/lib/gcc/arm-none-eabi/4.9.3/../../../arm-none-eabi/lib/armv7e-m/libc.a(lib_a-sbrkr.o)
 .text          0x0000000008011370        0x0 /usr/lib/gcc/arm-none-eabi/4.9.3/../../../arm-none-eabi/lib/armv7e-m/libc.a(lib_a-signal.o)
 .text          0x0000000008011370        0x0 /usr/lib/gcc/arm-none-eabi/4.9.3/../../../arm-none-eabi/lib/armv7e-m/libc.a(lib_a-signalr.o)
 .text          0x0000000008011370        0x0 /usr/lib/gcc/arm-none-eabi/4.9.3/../../../arm-none-eabi/lib/armv7e-m/libc.a(lib_a-stdio.o)
 .text          0x0000000008011370        0x0 /usr/lib/gcc/arm-none-eabi/4.9.3/../../../arm-none-eabi/lib/armv7e-m/libc.a(lib_a-strlen.o)
 .text          0x0000000008011370        0x0 /usr/lib/gcc/arm-none-eabi/4.9.3/../../../arm-none-eabi/lib/armv7e-m/libc.a(lib_a-strncmp.o)
 .text          0x0000000008011370        0x0 /usr/lib/gcc/arm-none-eabi/4.9.3/../../../arm-none-eabi/lib/armv7e-m/libc.a(lib_a-strncpy.o)
 .text          0x0000000008011370        0x0 /usr/lib/gcc/arm-none-eabi/4.9.3/../../../arm-none-eabi/lib/armv7e-m/libc.a(lib_a-strtod.o)
 .text          0x0000000008011370        0x0 /usr/lib/gcc/arm-none-eabi/4.9.3/../../../arm-none-eabi/lib/armv7e-m/libc.a(lib_a-strtol.o)
 .text          0x0000000008011370        0x0 /usr/lib/gcc/arm-none-eabi/4.9.3/../../../arm-none-eabi/lib/armv7e-m/libc.a(lib_a-syswrite.o)
 .text          0x0000000008011370        0x0 /usr/lib/gcc/arm-none-eabi/4.9.3/../../../arm-none-eabi/lib/armv7e-m/libc.a(lib_a-vfprintf.o)
 .text          0x0000000008011370        0x0 /usr/lib/gcc/arm-none-eabi/4.9.3/../../../arm-none-eabi/lib/armv7e-m/libc.a(lib_a-writer.o)
 .text          0x0000000008011370        0x0 /usr/lib/gcc/arm-none-eabi/4.9.3/../../../arm-none-eabi/lib/armv7e-m/libc.a(lib_a-wsetup.o)
 .text          0x0000000008011370        0x0 /usr/lib/gcc/arm-none-eabi/4.9.3/../../../arm-none-eabi/lib/armv7e-m/libc.a(lib_a-closer.o)
 .text          0x0000000008011370        0x0 /usr/lib/gcc/arm-none-eabi/4.9.3/../../../arm-none-eabi/lib/armv7e-m/libc.a(lib_a-ctype_.o)
 .text          0x0000000008011370        0x0 /usr/lib/gcc/arm-none-eabi/4.9.3/../../../arm-none-eabi/lib/armv7e-m/libc.a(lib_a-dtoa.o)
 .text          0x0000000008011370        0x0 /usr/lib/gcc/arm-none-eabi/4.9.3/../../../arm-none-eabi/lib/armv7e-m/libc.a(lib_a-fclose.o)
 .text          0x0000000008011370        0x0 /usr/lib/gcc/arm-none-eabi/4.9.3/../../../arm-none-eabi/lib/armv7e-m/libc.a(lib_a-fvwrite.o)
 .text          0x0000000008011370        0x0 /usr/lib/gcc/arm-none-eabi/4.9.3/../../../arm-none-eabi/lib/armv7e-m/libc.a(lib_a-gdtoa-gethex.o)
 .text          0x0000000008011370        0x0 /usr/lib/gcc/arm-none-eabi/4.9.3/../../../arm-none-eabi/lib/armv7e-m/libc.a(lib_a-gdtoa-hexnan.o)
 .text          0x0000000008011370        0x0 /usr/lib/gcc/arm-none-eabi/4.9.3/../../../arm-none-eabi/lib/armv7e-m/libc.a(lib_a-locale.o)
 .text          0x0000000008011370        0x0 /usr/lib/gcc/arm-none-eabi/4.9.3/../../../arm-none-eabi/lib/armv7e-m/libc.a(lib_a-lseekr.o)
 .text          0x0000000008011370        0x0 /usr/lib/gcc/arm-none-eabi/4.9.3/../../../arm-none-eabi/lib/armv7e-m/libc.a(lib_a-makebuf.o)
 .text          0x0000000008011370        0x0 /usr/lib/gcc/arm-none-eabi/4.9.3/../../../arm-none-eabi/lib/armv7e-m/libc.a(lib_a-memchr.o)
 .text          0x0000000008011370      0x134 /usr/lib/gcc/arm-none-eabi/4.9.3/../../../arm-none-eabi/lib/armv7e-m/libc.a(lib_a-memcpy.o)
                0x0000000008011370                memcpy
 .text          0x00000000080114a4        0x0 /usr/lib/gcc/arm-none-eabi/4.9.3/../../../arm-none-eabi/lib/armv7e-m/libc.a(lib_a-memmove.o)
 .text          0x00000000080114a4        0x0 /usr/lib/gcc/arm-none-eabi/4.9.3/../../../arm-none-eabi/lib/armv7e-m/libc.a(lib_a-mprec.o)
 .text          0x00000000080114a4        0x0 /usr/lib/gcc/arm-none-eabi/4.9.3/../../../arm-none-eabi/lib/armv7e-m/libc.a(lib_a-readr.o)
 .text          0x00000000080114a4        0x0 /usr/lib/gcc/arm-none-eabi/4.9.3/../../../arm-none-eabi/lib/armv7e-m/libc.a(lib_a-reallocr.o)
 .text          0x00000000080114a4        0x0 /usr/lib/gcc/arm-none-eabi/4.9.3/../../../arm-none-eabi/lib/armv7e-m/libc.a(lib_a-s_fpclassify.o)
 .text          0x00000000080114a4        0x0 /usr/lib/gcc/arm-none-eabi/4.9.3/../../../arm-none-eabi/lib/armv7e-m/libc.a(lib_a-sf_nan.o)
 *fill*         0x00000000080114a4       0x1c 
 .text          0x00000000080114c0      0x2e0 /usr/lib/gcc/arm-none-eabi/4.9.3/../../../arm-none-eabi/lib/armv7e-m/libc.a(lib_a-strcmp.o)
                0x00000000080114c8                strcmp
 .text          0x00000000080117a0        0x0 /usr/lib/gcc/arm-none-eabi/4.9.3/../../../arm-none-eabi/lib/armv7e-m/libc.a(lib_a-vfiprintf.o)
 .text          0x00000000080117a0        0x0 /usr/lib/gcc/arm-none-eabi/4.9.3/../../../arm-none-eabi/lib/armv7e-m/libc.a(lib_a-callocr.o)
 .text          0x00000000080117a0        0x0 /usr/lib/gcc/arm-none-eabi/4.9.3/../../../arm-none-eabi/lib/armv7e-m/libc.a(lib_a-fputwc.o)
 .text          0x00000000080117a0        0x0 /usr/lib/gcc/arm-none-eabi/4.9.3/../../../arm-none-eabi/lib/armv7e-m/libc.a(lib_a-fstatr.o)
 .text          0x00000000080117a0        0x0 /usr/lib/gcc/arm-none-eabi/4.9.3/../../../arm-none-eabi/lib/armv7e-m/libc.a(lib_a-isattyr.o)
 .text          0x00000000080117a0        0x0 /usr/lib/gcc/arm-none-eabi/4.9.3/../../../arm-none-eabi/lib/armv7e-m/libc.a(lib_a-wbuf.o)
 .text          0x00000000080117a0        0x0 /usr/lib/gcc/arm-none-eabi/4.9.3/../../../arm-none-eabi/lib/armv7e-m/libc.a(lib_a-wcrtomb.o)
 .text          0x00000000080117a0        0x0 /usr/lib/gcc/arm-none-eabi/4.9.3/../../../arm-none-eabi/lib/armv7e-m/libc.a(lib_a-wctomb_r.o)
 .text          0x00000000080117a0      0x110 /usr/lib/gcc/arm-none-eabi/4.9.3/armv7e-m/libgcc.a(_arm_cmpdf2.o)
                0x00000000080117a0                __gtdf2
                0x00000000080117a0                __gedf2
                0x00000000080117a8                __ltdf2
                0x00000000080117a8                __ledf2
                0x00000000080117b0                __cmpdf2
                0x00000000080117b0                __eqdf2
                0x00000000080117b0                __nedf2
                0x000000000801182c                __aeabi_cdrcmple
                0x000000000801183c                __aeabi_cdcmple
                0x000000000801183c                __aeabi_cdcmpeq
                0x000000000801184c                __aeabi_dcmpeq
                0x0000000008011860                __aeabi_dcmplt
                0x0000000008011874                __aeabi_dcmple
                0x0000000008011888                __aeabi_dcmpge
                0x000000000801189c                __aeabi_dcmpgt
 .text          0x00000000080118b0       0x50 /usr/lib/gcc/arm-none-eabi/4.9.3/armv7e-m/libgcc.a(_arm_fixdfsi.o)
                0x00000000080118b0                __fixdfsi
                0x00000000080118b0                __aeabi_d2iz
 *(.text.*)
 .text.Reset_Handler
                0x0000000008011900       0x44 ../Libraries/CMSIS/Device/ST/STM32F4xx/Source/Templates/gcc_ride7/startup_stm32f4xx.o
                0x0000000008011900                Reset_Handler
 .text.Default_Handler
                0x0000000008011944        0x2 ../Libraries/CMSIS/Device/ST/STM32F4xx/Source/Templates/gcc_ride7/startup_stm32f4xx.o
                0x0000000008011944                RTC_Alarm_IRQHandler
                0x0000000008011944                HASH_RNG_IRQHandler
                0x0000000008011944                EXTI2_IRQHandler
                0x0000000008011944                TIM8_CC_IRQHandler
                0x0000000008011944                TIM1_CC_IRQHandler
                0x0000000008011944                DMA2_Stream5_IRQHandler
                0x0000000008011944                DMA1_Stream5_IRQHandler
                0x0000000008011944                PVD_IRQHandler
                0x0000000008011944                SDIO_IRQHandler
                0x0000000008011944                TAMP_STAMP_IRQHandler
                0x0000000008011944                CAN2_RX1_IRQHandler
                0x0000000008011944                EXTI3_IRQHandler
                0x0000000008011944                TIM8_TRG_COM_TIM14_IRQHandler
                0x0000000008011944                TIM1_UP_TIM10_IRQHandler
                0x0000000008011944                TIM8_UP_TIM13_IRQHandler
                0x0000000008011944                I2C3_ER_IRQHandler
                0x0000000008011944                EXTI0_IRQHandler
                0x0000000008011944                I2C2_EV_IRQHandler
                0x0000000008011944                DMA1_Stream2_IRQHandler
                0x0000000008011944                CAN1_RX0_IRQHandler
                0x0000000008011944                FPU_IRQHandler
                0x0000000008011944                OTG_HS_WKUP_IRQHandler
                0x0000000008011944                CAN2_SCE_IRQHandler
                0x0000000008011944                DMA2_Stream2_IRQHandler
                0x0000000008011944                SPI1_IRQHandler
                0x0000000008011944                TIM6_DAC_IRQHandler
                0x0000000008011944                TIM1_BRK_TIM9_IRQHandler
                0x0000000008011944                DCMI_IRQHandler
                0x0000000008011944                CAN2_RX0_IRQHandler
                0x0000000008011944                DMA2_Stream3_IRQHandler
                0x0000000008011944                USART6_IRQHandler
                0x0000000008011944                USART3_IRQHandler
                0x0000000008011944                CRYP_IRQHandler
                0x0000000008011944                CAN1_RX1_IRQHandler
                0x0000000008011944                UART5_IRQHandler
                0x0000000008011944                TIM4_IRQHandler
                0x0000000008011944                I2C1_EV_IRQHandler
                0x0000000008011944                DMA1_Stream6_IRQHandler
                0x0000000008011944                DMA1_Stream1_IRQHandler
                0x0000000008011944                UART4_IRQHandler
                0x0000000008011944                TIM3_IRQHandler
                0x0000000008011944                RCC_IRQHandler
                0x0000000008011944                TIM8_BRK_TIM12_IRQHandler
                0x0000000008011944                Default_Handler
                0x0000000008011944                EXTI15_10_IRQHandler
                0x0000000008011944                ADC_IRQHandler
                0x0000000008011944                DMA1_Stream7_IRQHandler
                0x0000000008011944                TIM7_IRQHandler
                0x0000000008011944                CAN2_TX_IRQHandler
                0x0000000008011944                TIM5_IRQHandler
                0x0000000008011944                DMA2_Stream7_IRQHandler
                0x0000000008011944                I2C3_EV_IRQHandler
                0x0000000008011944                EXTI9_5_IRQHandler
                0x0000000008011944                RTC_WKUP_IRQHandler
                0x0000000008011944                ETH_WKUP_IRQHandler
                0x0000000008011944                SPI2_IRQHandler
                0x0000000008011944                OTG_HS_EP1_IN_IRQHandler
                0x0000000008011944                DMA1_Stream0_IRQHandler
                0x0000000008011944                CAN1_TX_IRQHandler
                0x0000000008011944                EXTI4_IRQHandler
                0x0000000008011944                FSMC_IRQHandler
                0x0000000008011944                ETH_IRQHandler
                0x0000000008011944                OTG_HS_EP1_OUT_IRQHandler
                0x0000000008011944                WWDG_IRQHandler
                0x0000000008011944                TIM2_IRQHandler
                0x0000000008011944                OTG_FS_WKUP_IRQHandler
                0x0000000008011944                TIM1_TRG_COM_TIM11_IRQHandler
                0x0000000008011944                OTG_HS_IRQHandler
                0x0000000008011944                EXTI1_IRQHandler
                0x0000000008011944                USART2_IRQHandler
                0x0000000008011944                I2C2_ER_IRQHandler
                0x0000000008011944                DMA2_Stream1_IRQHandler
                0x0000000008011944                CAN1_SCE_IRQHandler
                0x0000000008011944                FLASH_IRQHandler
                0x0000000008011944                DMA2_Stream4_IRQHandler
                0x0000000008011944                USART1_IRQHandler
                0x0000000008011944                OTG_FS_IRQHandler
                0x0000000008011944                SPI3_IRQHandler
                0x0000000008011944                DMA1_Stream4_IRQHandler
                0x0000000008011944                I2C1_ER_IRQHandler
                0x0000000008011944                DMA2_Stream6_IRQHandler
                0x0000000008011944                DMA1_Stream3_IRQHandler
 *fill*         0x0000000008011946        0x2 
 .text.startup  0x0000000008011948       0x5c build/main.o
                0x0000000008011948                main
 .text.abort    0x00000000080119a4       0x10 /usr/lib/gcc/arm-none-eabi/4.9.3/../../../arm-none-eabi/lib/armv7e-m/libc.a(lib_a-abort.o)
                0x00000000080119a4                abort
 .text.atof     0x00000000080119b4        0x8 /usr/lib/gcc/arm-none-eabi/4.9.3/../../../arm-none-eabi/lib/armv7e-m/libc.a(lib_a-atof.o)
                0x00000000080119b4                atof
 .text.atoi     0x00000000080119bc        0x8 /usr/lib/gcc/arm-none-eabi/4.9.3/../../../arm-none-eabi/lib/armv7e-m/libc.a(lib_a-atoi.o)
                0x00000000080119bc                atoi
 .text._atoi_r  0x00000000080119c4        0x8 /usr/lib/gcc/arm-none-eabi/4.9.3/../../../arm-none-eabi/lib/armv7e-m/libc.a(lib_a-atoi.o)
                0x00000000080119c4                _atoi_r
 .text.__sflush_r
                0x00000000080119cc      0x154 /usr/lib/gcc/arm-none-eabi/4.9.3/../../../arm-none-eabi/lib/armv7e-m/libc.a(lib_a-fflush.o)
                0x00000000080119cc                __sflush_r
 .text._fflush_r
                0x0000000008011b20       0x2c /usr/lib/gcc/arm-none-eabi/4.9.3/../../../arm-none-eabi/lib/armv7e-m/libc.a(lib_a-fflush.o)
                0x0000000008011b20                _fflush_r
 .text.fflush   0x0000000008011b4c       0x24 /usr/lib/gcc/arm-none-eabi/4.9.3/../../../arm-none-eabi/lib/armv7e-m/libc.a(lib_a-fflush.o)
                0x0000000008011b4c                fflush
 .text.__fp_lock
                0x0000000008011b70        0x4 /usr/lib/gcc/arm-none-eabi/4.9.3/../../../arm-none-eabi/lib/armv7e-m/libc.a(lib_a-findfp.o)
 .text.__fp_unlock
                0x0000000008011b74        0x4 /usr/lib/gcc/arm-none-eabi/4.9.3/../../../arm-none-eabi/lib/armv7e-m/libc.a(lib_a-findfp.o)
 .text._cleanup_r
                0x0000000008011b78        0xc /usr/lib/gcc/arm-none-eabi/4.9.3/../../../arm-none-eabi/lib/armv7e-m/libc.a(lib_a-findfp.o)
                0x0000000008011b78                _cleanup_r
 .text.__sinit.part.1
                0x0000000008011b84       0xf0 /usr/lib/gcc/arm-none-eabi/4.9.3/../../../arm-none-eabi/lib/armv7e-m/libc.a(lib_a-findfp.o)
 .text.__sfmoreglue
                0x0000000008011c74       0x30 /usr/lib/gcc/arm-none-eabi/4.9.3/../../../arm-none-eabi/lib/armv7e-m/libc.a(lib_a-findfp.o)
                0x0000000008011c74                __sfmoreglue
 .text.__sfp    0x0000000008011ca4       0x88 /usr/lib/gcc/arm-none-eabi/4.9.3/../../../arm-none-eabi/lib/armv7e-m/libc.a(lib_a-findfp.o)
                0x0000000008011ca4                __sfp
 .text._cleanup
                0x0000000008011d2c       0x14 /usr/lib/gcc/arm-none-eabi/4.9.3/../../../arm-none-eabi/lib/armv7e-m/libc.a(lib_a-findfp.o)
                0x0000000008011d2c                _cleanup
 .text.__sinit  0x0000000008011d40        0xc /usr/lib/gcc/arm-none-eabi/4.9.3/../../../arm-none-eabi/lib/armv7e-m/libc.a(lib_a-findfp.o)
                0x0000000008011d40                __sinit
 .text.__sfp_lock_acquire
                0x0000000008011d4c        0x4 /usr/lib/gcc/arm-none-eabi/4.9.3/../../../arm-none-eabi/lib/armv7e-m/libc.a(lib_a-findfp.o)
                0x0000000008011d4c                __sfp_lock_acquire
 .text.__sfp_lock_release
                0x0000000008011d50        0x4 /usr/lib/gcc/arm-none-eabi/4.9.3/../../../arm-none-eabi/lib/armv7e-m/libc.a(lib_a-findfp.o)
                0x0000000008011d50                __sfp_lock_release
 .text.__sinit_lock_acquire
                0x0000000008011d54        0x4 /usr/lib/gcc/arm-none-eabi/4.9.3/../../../arm-none-eabi/lib/armv7e-m/libc.a(lib_a-findfp.o)
                0x0000000008011d54                __sinit_lock_acquire
 .text.__sinit_lock_release
                0x0000000008011d58        0x4 /usr/lib/gcc/arm-none-eabi/4.9.3/../../../arm-none-eabi/lib/armv7e-m/libc.a(lib_a-findfp.o)
                0x0000000008011d58                __sinit_lock_release
 .text.__fp_lock_all
                0x0000000008011d5c       0x14 /usr/lib/gcc/arm-none-eabi/4.9.3/../../../arm-none-eabi/lib/armv7e-m/libc.a(lib_a-findfp.o)
                0x0000000008011d5c                __fp_lock_all
 .text.__fp_unlock_all
                0x0000000008011d70       0x14 /usr/lib/gcc/arm-none-eabi/4.9.3/../../../arm-none-eabi/lib/armv7e-m/libc.a(lib_a-findfp.o)
                0x0000000008011d70                __fp_unlock_all
 .text._malloc_trim_r
                0x0000000008011d84       0x9c /usr/lib/gcc/arm-none-eabi/4.9.3/../../../arm-none-eabi/lib/armv7e-m/libc.a(lib_a-freer.o)
                0x0000000008011d84                _malloc_trim_r
 .text._free_r  0x0000000008011e20      0x1b0 /usr/lib/gcc/arm-none-eabi/4.9.3/../../../arm-none-eabi/lib/armv7e-m/libc.a(lib_a-freer.o)
                0x0000000008011e20                _free_r
 .text._fwalk   0x0000000008011fd0       0x4c /usr/lib/gcc/arm-none-eabi/4.9.3/../../../arm-none-eabi/lib/armv7e-m/libc.a(lib_a-fwalk.o)
                0x0000000008011fd0                _fwalk
 .text._fwalk_reent
                0x000000000801201c       0x54 /usr/lib/gcc/arm-none-eabi/4.9.3/../../../arm-none-eabi/lib/armv7e-m/libc.a(lib_a-fwalk.o)
                0x000000000801201c                _fwalk_reent
 .text._malloc_r
                0x0000000008012070      0x524 /usr/lib/gcc/arm-none-eabi/4.9.3/../../../arm-none-eabi/lib/armv7e-m/libc.a(lib_a-mallocr.o)
                0x0000000008012070                _malloc_r
 .text.memset   0x0000000008012594       0x9c /usr/lib/gcc/arm-none-eabi/4.9.3/../../../arm-none-eabi/lib/armv7e-m/libc.a(lib_a-memset.o)
                0x0000000008012594                memset
 .text.__malloc_lock
                0x0000000008012630        0x4 /usr/lib/gcc/arm-none-eabi/4.9.3/../../../arm-none-eabi/lib/armv7e-m/libc.a(lib_a-mlock.o)
                0x0000000008012630                __malloc_lock
 .text.__malloc_unlock
                0x0000000008012634        0x4 /usr/lib/gcc/arm-none-eabi/4.9.3/../../../arm-none-eabi/lib/armv7e-m/libc.a(lib_a-mlock.o)
                0x0000000008012634                __malloc_unlock
 .text._printf_r
                0x0000000008012638       0x20 /usr/lib/gcc/arm-none-eabi/4.9.3/../../../arm-none-eabi/lib/armv7e-m/libc.a(lib_a-printf.o)
                0x0000000008012638                _printf_r
 .text.printf   0x0000000008012658       0x28 /usr/lib/gcc/arm-none-eabi/4.9.3/../../../arm-none-eabi/lib/armv7e-m/libc.a(lib_a-printf.o)
                0x0000000008012658                printf
 .text._puts_r  0x0000000008012680       0x64 /usr/lib/gcc/arm-none-eabi/4.9.3/../../../arm-none-eabi/lib/armv7e-m/libc.a(lib_a-puts.o)
                0x0000000008012680                _puts_r
 .text.puts     0x00000000080126e4       0x10 /usr/lib/gcc/arm-none-eabi/4.9.3/../../../arm-none-eabi/lib/armv7e-m/libc.a(lib_a-puts.o)
                0x00000000080126e4                puts
 .text.cleanup_glue
                0x00000000080126f4       0x1c /usr/lib/gcc/arm-none-eabi/4.9.3/../../../arm-none-eabi/lib/armv7e-m/libc.a(lib_a-reent.o)
                0x00000000080126f4                cleanup_glue
 .text._reclaim_reent
                0x0000000008012710       0x88 /usr/lib/gcc/arm-none-eabi/4.9.3/../../../arm-none-eabi/lib/armv7e-m/libc.a(lib_a-reent.o)
                0x0000000008012710                _reclaim_reent
 .text._sbrk_r  0x0000000008012798       0x24 /usr/lib/gcc/arm-none-eabi/4.9.3/../../../arm-none-eabi/lib/armv7e-m/libc.a(lib_a-sbrkr.o)
                0x0000000008012798                _sbrk_r
 .text._init_signal_r
                0x00000000080127bc       0x38 /usr/lib/gcc/arm-none-eabi/4.9.3/../../../arm-none-eabi/lib/armv7e-m/libc.a(lib_a-signal.o)
                0x00000000080127bc                _init_signal_r
 .text._signal_r
                0x00000000080127f4       0x38 /usr/lib/gcc/arm-none-eabi/4.9.3/../../../arm-none-eabi/lib/armv7e-m/libc.a(lib_a-signal.o)
                0x00000000080127f4                _signal_r
 .text._raise_r
                0x000000000801282c       0x58 /usr/lib/gcc/arm-none-eabi/4.9.3/../../../arm-none-eabi/lib/armv7e-m/libc.a(lib_a-signal.o)
                0x000000000801282c                _raise_r
 .text.__sigtramp_r
                0x0000000008012884       0x54 /usr/lib/gcc/arm-none-eabi/4.9.3/../../../arm-none-eabi/lib/armv7e-m/libc.a(lib_a-signal.o)
                0x0000000008012884                __sigtramp_r
 .text.raise    0x00000000080128d8       0x10 /usr/lib/gcc/arm-none-eabi/4.9.3/../../../arm-none-eabi/lib/armv7e-m/libc.a(lib_a-signal.o)
                0x00000000080128d8                raise
 .text.signal   0x00000000080128e8       0x10 /usr/lib/gcc/arm-none-eabi/4.9.3/../../../arm-none-eabi/lib/armv7e-m/libc.a(lib_a-signal.o)
                0x00000000080128e8                signal
 .text._init_signal
                0x00000000080128f8        0xc /usr/lib/gcc/arm-none-eabi/4.9.3/../../../arm-none-eabi/lib/armv7e-m/libc.a(lib_a-signal.o)
                0x00000000080128f8                _init_signal
 .text.__sigtramp
                0x0000000008012904       0x10 /usr/lib/gcc/arm-none-eabi/4.9.3/../../../arm-none-eabi/lib/armv7e-m/libc.a(lib_a-signal.o)
                0x0000000008012904                __sigtramp
 .text._kill_r  0x0000000008012914       0x28 /usr/lib/gcc/arm-none-eabi/4.9.3/../../../arm-none-eabi/lib/armv7e-m/libc.a(lib_a-signalr.o)
                0x0000000008012914                _kill_r
 .text._getpid_r
                0x000000000801293c        0x4 /usr/lib/gcc/arm-none-eabi/4.9.3/../../../arm-none-eabi/lib/armv7e-m/libc.a(lib_a-signalr.o)
                0x000000000801293c                _getpid_r
 .text.__sread  0x0000000008012940       0x24 /usr/lib/gcc/arm-none-eabi/4.9.3/../../../arm-none-eabi/lib/armv7e-m/libc.a(lib_a-stdio.o)
                0x0000000008012940                __sread
 .text.__seofread
                0x0000000008012964        0x4 /usr/lib/gcc/arm-none-eabi/4.9.3/../../../arm-none-eabi/lib/armv7e-m/libc.a(lib_a-stdio.o)
                0x0000000008012964                __seofread
 .text.__swrite
                0x0000000008012968       0x38 /usr/lib/gcc/arm-none-eabi/4.9.3/../../../arm-none-eabi/lib/armv7e-m/libc.a(lib_a-stdio.o)
                0x0000000008012968                __swrite
 .text.__sseek  0x00000000080129a0       0x20 /usr/lib/gcc/arm-none-eabi/4.9.3/../../../arm-none-eabi/lib/armv7e-m/libc.a(lib_a-stdio.o)
                0x00000000080129a0                __sseek
 .text.__sclose
                0x00000000080129c0        0x8 /usr/lib/gcc/arm-none-eabi/4.9.3/../../../arm-none-eabi/lib/armv7e-m/libc.a(lib_a-stdio.o)
                0x00000000080129c0                __sclose
 .text.strlen   0x00000000080129c8       0x5c /usr/lib/gcc/arm-none-eabi/4.9.3/../../../arm-none-eabi/lib/armv7e-m/libc.a(lib_a-strlen.o)
                0x00000000080129c8                strlen
 .text.strncmp  0x0000000008012a24       0x98 /usr/lib/gcc/arm-none-eabi/4.9.3/../../../arm-none-eabi/lib/armv7e-m/libc.a(lib_a-strncmp.o)
                0x0000000008012a24                strncmp
 .text.strncpy  0x0000000008012abc       0x68 /usr/lib/gcc/arm-none-eabi/4.9.3/../../../arm-none-eabi/lib/armv7e-m/libc.a(lib_a-strncpy.o)
                0x0000000008012abc                strncpy
 .text.sulp     0x0000000008012b24       0x44 /usr/lib/gcc/arm-none-eabi/4.9.3/../../../arm-none-eabi/lib/armv7e-m/libc.a(lib_a-strtod.o)
 .text._strtod_r
                0x0000000008012b68      0xf28 /usr/lib/gcc/arm-none-eabi/4.9.3/../../../arm-none-eabi/lib/armv7e-m/libc.a(lib_a-strtod.o)
                0x0000000008012b68                _strtod_r
 .text.strtod   0x0000000008013a90       0x10 /usr/lib/gcc/arm-none-eabi/4.9.3/../../../arm-none-eabi/lib/armv7e-m/libc.a(lib_a-strtod.o)
                0x0000000008013a90                strtod
 .text.strtof   0x0000000008013aa0       0x30 /usr/lib/gcc/arm-none-eabi/4.9.3/../../../arm-none-eabi/lib/armv7e-m/libc.a(lib_a-strtod.o)
                0x0000000008013aa0                strtof
 .text._strtol_r
                0x0000000008013ad0      0x11c /usr/lib/gcc/arm-none-eabi/4.9.3/../../../arm-none-eabi/lib/armv7e-m/libc.a(lib_a-strtol.o)
                0x0000000008013ad0                _strtol_r
 .text.strtol   0x0000000008013bec       0x18 /usr/lib/gcc/arm-none-eabi/4.9.3/../../../arm-none-eabi/lib/armv7e-m/libc.a(lib_a-strtol.o)
                0x0000000008013bec                strtol
 .text.write    0x0000000008013c04       0x18 /usr/lib/gcc/arm-none-eabi/4.9.3/../../../arm-none-eabi/lib/armv7e-m/libc.a(lib_a-syswrite.o)
                0x0000000008013c04                write
 .text._vfprintf_r
                0x0000000008013c1c     0x13e8 /usr/lib/gcc/arm-none-eabi/4.9.3/../../../arm-none-eabi/lib/armv7e-m/libc.a(lib_a-vfprintf.o)
                0x0000000008013c1c                _vfprintf_r
 .text.vfprintf
                0x0000000008015004       0x18 /usr/lib/gcc/arm-none-eabi/4.9.3/../../../arm-none-eabi/lib/armv7e-m/libc.a(lib_a-vfprintf.o)
                0x0000000008015004                vfprintf
 .text.__sbprintf
                0x000000000801501c       0x78 /usr/lib/gcc/arm-none-eabi/4.9.3/../../../arm-none-eabi/lib/armv7e-m/libc.a(lib_a-vfprintf.o)
 .text._write_r
                0x0000000008015094       0x28 /usr/lib/gcc/arm-none-eabi/4.9.3/../../../arm-none-eabi/lib/armv7e-m/libc.a(lib_a-writer.o)
                0x0000000008015094                _write_r
 .text.__swsetup_r
                0x00000000080150bc       0xc4 /usr/lib/gcc/arm-none-eabi/4.9.3/../../../arm-none-eabi/lib/armv7e-m/libc.a(lib_a-wsetup.o)
                0x00000000080150bc                __swsetup_r
 .text._close_r
                0x0000000008015180       0x24 /usr/lib/gcc/arm-none-eabi/4.9.3/../../../arm-none-eabi/lib/armv7e-m/libc.a(lib_a-closer.o)
                0x0000000008015180                _close_r
 .text.quorem   0x00000000080151a4      0x12c /usr/lib/gcc/arm-none-eabi/4.9.3/../../../arm-none-eabi/lib/armv7e-m/libc.a(lib_a-dtoa.o)
 .text._dtoa_r  0x00000000080152d0      0xe98 /usr/lib/gcc/arm-none-eabi/4.9.3/../../../arm-none-eabi/lib/armv7e-m/libc.a(lib_a-dtoa.o)
                0x00000000080152d0                _dtoa_r
 .text._fclose_r
                0x0000000008016168       0x84 /usr/lib/gcc/arm-none-eabi/4.9.3/../../../arm-none-eabi/lib/armv7e-m/libc.a(lib_a-fclose.o)
                0x0000000008016168                _fclose_r
 .text.fclose   0x00000000080161ec       0x10 /usr/lib/gcc/arm-none-eabi/4.9.3/../../../arm-none-eabi/lib/armv7e-m/libc.a(lib_a-fclose.o)
                0x00000000080161ec                fclose
 .text.__sfvwrite_r
                0x00000000080161fc      0x318 /usr/lib/gcc/arm-none-eabi/4.9.3/../../../arm-none-eabi/lib/armv7e-m/libc.a(lib_a-fvwrite.o)
                0x00000000080161fc                __sfvwrite_r
 .text.rshift   0x0000000008016514       0xa0 /usr/lib/gcc/arm-none-eabi/4.9.3/../../../arm-none-eabi/lib/armv7e-m/libc.a(lib_a-gdtoa-gethex.o)
 .text.__gethex
                0x00000000080165b4      0x514 /usr/lib/gcc/arm-none-eabi/4.9.3/../../../arm-none-eabi/lib/armv7e-m/libc.a(lib_a-gdtoa-gethex.o)
                0x00000000080165b4                __gethex
 .text.__hexnan
                0x0000000008016ac8      0x184 /usr/lib/gcc/arm-none-eabi/4.9.3/../../../arm-none-eabi/lib/armv7e-m/libc.a(lib_a-gdtoa-hexnan.o)
                0x0000000008016ac8                __hexnan
 .text._setlocale_r
                0x0000000008016c4c       0x44 /usr/lib/gcc/arm-none-eabi/4.9.3/../../../arm-none-eabi/lib/armv7e-m/libc.a(lib_a-locale.o)
                0x0000000008016c4c                _setlocale_r
 .text.__locale_charset
                0x0000000008016c90        0x8 /usr/lib/gcc/arm-none-eabi/4.9.3/../../../arm-none-eabi/lib/armv7e-m/libc.a(lib_a-locale.o)
                0x0000000008016c90                __locale_charset
 .text.__locale_mb_cur_max
                0x0000000008016c98        0xc /usr/lib/gcc/arm-none-eabi/4.9.3/../../../arm-none-eabi/lib/armv7e-m/libc.a(lib_a-locale.o)
                0x0000000008016c98                __locale_mb_cur_max
 .text.__locale_msgcharset
                0x0000000008016ca4        0x8 /usr/lib/gcc/arm-none-eabi/4.9.3/../../../arm-none-eabi/lib/armv7e-m/libc.a(lib_a-locale.o)
                0x0000000008016ca4                __locale_msgcharset
 .text.__locale_cjk_lang
                0x0000000008016cac        0x4 /usr/lib/gcc/arm-none-eabi/4.9.3/../../../arm-none-eabi/lib/armv7e-m/libc.a(lib_a-locale.o)
                0x0000000008016cac                __locale_cjk_lang
 .text._localeconv_r
                0x0000000008016cb0        0x8 /usr/lib/gcc/arm-none-eabi/4.9.3/../../../arm-none-eabi/lib/armv7e-m/libc.a(lib_a-locale.o)
                0x0000000008016cb0                _localeconv_r
 .text.setlocale
                0x0000000008016cb8       0x10 /usr/lib/gcc/arm-none-eabi/4.9.3/../../../arm-none-eabi/lib/armv7e-m/libc.a(lib_a-locale.o)
                0x0000000008016cb8                setlocale
 .text.localeconv
                0x0000000008016cc8        0x8 /usr/lib/gcc/arm-none-eabi/4.9.3/../../../arm-none-eabi/lib/armv7e-m/libc.a(lib_a-locale.o)
                0x0000000008016cc8                localeconv
 .text._lseek_r
                0x0000000008016cd0       0x28 /usr/lib/gcc/arm-none-eabi/4.9.3/../../../arm-none-eabi/lib/armv7e-m/libc.a(lib_a-lseekr.o)
                0x0000000008016cd0                _lseek_r
 .text.__smakebuf_r
                0x0000000008016cf8       0xe0 /usr/lib/gcc/arm-none-eabi/4.9.3/../../../arm-none-eabi/lib/armv7e-m/libc.a(lib_a-makebuf.o)
                0x0000000008016cf8                __smakebuf_r
 .text.memchr   0x0000000008016dd8       0x94 /usr/lib/gcc/arm-none-eabi/4.9.3/../../../arm-none-eabi/lib/armv7e-m/libc.a(lib_a-memchr.o)
                0x0000000008016dd8                memchr
 .text.memmove  0x0000000008016e6c       0xc8 /usr/lib/gcc/arm-none-eabi/4.9.3/../../../arm-none-eabi/lib/armv7e-m/libc.a(lib_a-memmove.o)
                0x0000000008016e6c                memmove
 .text._Balloc  0x0000000008016f34       0x4c /usr/lib/gcc/arm-none-eabi/4.9.3/../../../arm-none-eabi/lib/armv7e-m/libc.a(lib_a-mprec.o)
                0x0000000008016f34                _Balloc
 .text._Bfree   0x0000000008016f80       0x14 /usr/lib/gcc/arm-none-eabi/4.9.3/../../../arm-none-eabi/lib/armv7e-m/libc.a(lib_a-mprec.o)
                0x0000000008016f80                _Bfree
 .text.__multadd
                0x0000000008016f94       0x84 /usr/lib/gcc/arm-none-eabi/4.9.3/../../../arm-none-eabi/lib/armv7e-m/libc.a(lib_a-mprec.o)
                0x0000000008016f94                __multadd
 .text.__s2b    0x0000000008017018       0x98 /usr/lib/gcc/arm-none-eabi/4.9.3/../../../arm-none-eabi/lib/armv7e-m/libc.a(lib_a-mprec.o)
                0x0000000008017018                __s2b
 .text.__hi0bits
                0x00000000080170b0       0x40 /usr/lib/gcc/arm-none-eabi/4.9.3/../../../arm-none-eabi/lib/armv7e-m/libc.a(lib_a-mprec.o)
                0x00000000080170b0                __hi0bits
 .text.__lo0bits
                0x00000000080170f0       0x5c /usr/lib/gcc/arm-none-eabi/4.9.3/../../../arm-none-eabi/lib/armv7e-m/libc.a(lib_a-mprec.o)
                0x00000000080170f0                __lo0bits
 .text.__i2b    0x000000000801714c       0x14 /usr/lib/gcc/arm-none-eabi/4.9.3/../../../arm-none-eabi/lib/armv7e-m/libc.a(lib_a-mprec.o)
                0x000000000801714c                __i2b
 .text.__multiply
                0x0000000008017160      0x134 /usr/lib/gcc/arm-none-eabi/4.9.3/../../../arm-none-eabi/lib/armv7e-m/libc.a(lib_a-mprec.o)
                0x0000000008017160                __multiply
 .text.__pow5mult
                0x0000000008017294       0xa0 /usr/lib/gcc/arm-none-eabi/4.9.3/../../../arm-none-eabi/lib/armv7e-m/libc.a(lib_a-mprec.o)
                0x0000000008017294                __pow5mult
 .text.__lshift
                0x0000000008017334       0xac /usr/lib/gcc/arm-none-eabi/4.9.3/../../../arm-none-eabi/lib/armv7e-m/libc.a(lib_a-mprec.o)
                0x0000000008017334                __lshift
 .text.__mcmp   0x00000000080173e0       0x48 /usr/lib/gcc/arm-none-eabi/4.9.3/../../../arm-none-eabi/lib/armv7e-m/libc.a(lib_a-mprec.o)
                0x00000000080173e0                __mcmp
 .text.__mdiff  0x0000000008017428       0xd4 /usr/lib/gcc/arm-none-eabi/4.9.3/../../../arm-none-eabi/lib/armv7e-m/libc.a(lib_a-mprec.o)
                0x0000000008017428                __mdiff
 .text.__ulp    0x00000000080174fc       0x40 /usr/lib/gcc/arm-none-eabi/4.9.3/../../../arm-none-eabi/lib/armv7e-m/libc.a(lib_a-mprec.o)
                0x00000000080174fc                __ulp
 .text.__b2d    0x000000000801753c       0xc4 /usr/lib/gcc/arm-none-eabi/4.9.3/../../../arm-none-eabi/lib/armv7e-m/libc.a(lib_a-mprec.o)
                0x000000000801753c                __b2d
 .text.__d2b    0x0000000008017600       0xb8 /usr/lib/gcc/arm-none-eabi/4.9.3/../../../arm-none-eabi/lib/armv7e-m/libc.a(lib_a-mprec.o)
                0x0000000008017600                __d2b
 .text.__ratio  0x00000000080176b8       0x58 /usr/lib/gcc/arm-none-eabi/4.9.3/../../../arm-none-eabi/lib/armv7e-m/libc.a(lib_a-mprec.o)
                0x00000000080176b8                __ratio
 .text._mprec_log10
                0x0000000008017710       0x34 /usr/lib/gcc/arm-none-eabi/4.9.3/../../../arm-none-eabi/lib/armv7e-m/libc.a(lib_a-mprec.o)
                0x0000000008017710                _mprec_log10
 .text.__copybits
                0x0000000008017744       0x48 /usr/lib/gcc/arm-none-eabi/4.9.3/../../../arm-none-eabi/lib/armv7e-m/libc.a(lib_a-mprec.o)
                0x0000000008017744                __copybits
 .text.__any_on
                0x000000000801778c       0x60 /usr/lib/gcc/arm-none-eabi/4.9.3/../../../arm-none-eabi/lib/armv7e-m/libc.a(lib_a-mprec.o)
                0x000000000801778c                __any_on
 .text._read_r  0x00000000080177ec       0x28 /usr/lib/gcc/arm-none-eabi/4.9.3/../../../arm-none-eabi/lib/armv7e-m/libc.a(lib_a-readr.o)
                0x00000000080177ec                _read_r
 .text._realloc_r
                0x0000000008017814      0x3ec /usr/lib/gcc/arm-none-eabi/4.9.3/../../../arm-none-eabi/lib/armv7e-m/libc.a(lib_a-reallocr.o)
                0x0000000008017814                _realloc_r
 .text.__fpclassifyd
                0x0000000008017c00       0x58 /usr/lib/gcc/arm-none-eabi/4.9.3/../../../arm-none-eabi/lib/armv7e-m/libc.a(lib_a-s_fpclassify.o)
                0x0000000008017c00                __fpclassifyd
 .text.nanf     0x0000000008017c58        0x8 /usr/lib/gcc/arm-none-eabi/4.9.3/../../../arm-none-eabi/lib/armv7e-m/libc.a(lib_a-sf_nan.o)
                0x0000000008017c58                nanf
 .text.__sprint_r.part.0
                0x0000000008017c60       0x78 /usr/lib/gcc/arm-none-eabi/4.9.3/../../../arm-none-eabi/lib/armv7e-m/libc.a(lib_a-vfiprintf.o)
 .text.__sprint_r
                0x0000000008017cd8       0x18 /usr/lib/gcc/arm-none-eabi/4.9.3/../../../arm-none-eabi/lib/armv7e-m/libc.a(lib_a-vfiprintf.o)
                0x0000000008017cd8                __sprint_r
 .text._vfiprintf_r
                0x0000000008017cf0      0xc10 /usr/lib/gcc/arm-none-eabi/4.9.3/../../../arm-none-eabi/lib/armv7e-m/libc.a(lib_a-vfiprintf.o)
                0x0000000008017cf0                _vfiprintf_r
 .text.vfiprintf
                0x0000000008018900       0x18 /usr/lib/gcc/arm-none-eabi/4.9.3/../../../arm-none-eabi/lib/armv7e-m/libc.a(lib_a-vfiprintf.o)
                0x0000000008018900                vfiprintf
 .text.__sbprintf
                0x0000000008018918       0x78 /usr/lib/gcc/arm-none-eabi/4.9.3/../../../arm-none-eabi/lib/armv7e-m/libc.a(lib_a-vfiprintf.o)
 .text._calloc_r
                0x0000000008018990       0x60 /usr/lib/gcc/arm-none-eabi/4.9.3/../../../arm-none-eabi/lib/armv7e-m/libc.a(lib_a-callocr.o)
                0x0000000008018990                _calloc_r
 .text.__fputwc
                0x00000000080189f0       0xb0 /usr/lib/gcc/arm-none-eabi/4.9.3/../../../arm-none-eabi/lib/armv7e-m/libc.a(lib_a-fputwc.o)
                0x00000000080189f0                __fputwc
 .text._fputwc_r
                0x0000000008018aa0       0x24 /usr/lib/gcc/arm-none-eabi/4.9.3/../../../arm-none-eabi/lib/armv7e-m/libc.a(lib_a-fputwc.o)
                0x0000000008018aa0                _fputwc_r
 .text.fputwc   0x0000000008018ac4       0x28 /usr/lib/gcc/arm-none-eabi/4.9.3/../../../arm-none-eabi/lib/armv7e-m/libc.a(lib_a-fputwc.o)
                0x0000000008018ac4                fputwc
 .text._fstat_r
                0x0000000008018aec       0x28 /usr/lib/gcc/arm-none-eabi/4.9.3/../../../arm-none-eabi/lib/armv7e-m/libc.a(lib_a-fstatr.o)
                0x0000000008018aec                _fstat_r
 .text._isatty_r
                0x0000000008018b14       0x24 /usr/lib/gcc/arm-none-eabi/4.9.3/../../../arm-none-eabi/lib/armv7e-m/libc.a(lib_a-isattyr.o)
                0x0000000008018b14                _isatty_r
 .text.__swbuf_r
                0x0000000008018b38       0xa8 /usr/lib/gcc/arm-none-eabi/4.9.3/../../../arm-none-eabi/lib/armv7e-m/libc.a(lib_a-wbuf.o)
                0x0000000008018b38                __swbuf_r
 .text.__swbuf  0x0000000008018be0       0x10 /usr/lib/gcc/arm-none-eabi/4.9.3/../../../arm-none-eabi/lib/armv7e-m/libc.a(lib_a-wbuf.o)
                0x0000000008018be0                __swbuf
 .text._wcrtomb_r
                0x0000000008018bf0       0x54 /usr/lib/gcc/arm-none-eabi/4.9.3/../../../arm-none-eabi/lib/armv7e-m/libc.a(lib_a-wcrtomb.o)
                0x0000000008018bf0                _wcrtomb_r
 .text.wcrtomb  0x0000000008018c44       0x58 /usr/lib/gcc/arm-none-eabi/4.9.3/../../../arm-none-eabi/lib/armv7e-m/libc.a(lib_a-wcrtomb.o)
                0x0000000008018c44                wcrtomb
 .text.__ascii_wctomb
                0x0000000008018c9c       0x1c /usr/lib/gcc/arm-none-eabi/4.9.3/../../../arm-none-eabi/lib/armv7e-m/libc.a(lib_a-wctomb_r.o)
                0x0000000008018c9c                __ascii_wctomb
 .text._wctomb_r
                0x0000000008018cb8       0x30 /usr/lib/gcc/arm-none-eabi/4.9.3/../../../arm-none-eabi/lib/armv7e-m/libc.a(lib_a-wctomb_r.o)
                0x0000000008018cb8                _wctomb_r
                0x0000000008018ce8                . = ALIGN (0x4)

.glue_7         0x0000000008018ce8        0x0
 .glue_7        0x0000000008018ce8        0x0 linker stubs

.glue_7t        0x0000000008018ce8        0x0
 .glue_7t       0x0000000008018ce8        0x0 linker stubs

.vfp11_veneer   0x0000000008018ce8        0x0
 .vfp11_veneer  0x0000000008018ce8        0x0 linker stubs

.v4_bx          0x0000000008018ce8        0x0
 .v4_bx         0x0000000008018ce8        0x0 linker stubs

.iplt           0x0000000008018ce8        0x0
 .iplt          0x0000000008018ce8        0x0 ../Libraries/CMSIS/Device/ST/STM32F4xx/Source/Templates/gcc_ride7/startup_stm32f4xx.o

.rodata         0x0000000008018ce8      0x940
                0x0000000008018ce8                . = ALIGN (0x4)
 *(.rodata)
 .rodata        0x0000000008018ce8       0x18 build/date_str.o
                0x0000000008018ce8                time_str
                0x0000000008018cf4                date_str
 .rodata        0x0000000008018d00       0xd8 build/prm_variable.o
 .rodata        0x0000000008018dd8        0xf build/prm_interface.o
 *(.rodata*)
 *fill*         0x0000000008018de7        0x1 
 .rodata.str1.4
                0x0000000008018de8       0x1a build/syscall.o
 *fill*         0x0000000008018e02        0x2 
 .rodata.str1.4
                0x0000000008018e04       0x9a build/module_test.o
 *fill*         0x0000000008018e9e        0x2 
 .rodata.str1.4
                0x0000000008018ea0      0x342 build/prm_interface.o
                                        0x34a (size before relaxing)
 *fill*         0x00000000080191e2        0x2 
 .rodata.str1.4
                0x00000000080191e4        0x5 build/main.o
                                          0xa (size before relaxing)
 *fill*         0x00000000080191e9        0x3 
 .rodata.str1.4
                0x00000000080191ec        0x2 /usr/lib/gcc/arm-none-eabi/4.9.3/../../../arm-none-eabi/lib/armv7e-m/libc.a(lib_a-impure.o)
                                          0x4 (size before relaxing)
 *fill*         0x00000000080191ee        0x2 
 .rodata._global_impure_ptr
                0x00000000080191f0        0x4 /usr/lib/gcc/arm-none-eabi/4.9.3/../../../arm-none-eabi/lib/armv7e-m/libc.a(lib_a-impure.o)
                0x00000000080191f0                _global_impure_ptr
 .rodata.str1.4
                0x00000000080191f4        0x2 /usr/lib/gcc/arm-none-eabi/4.9.3/../../../arm-none-eabi/lib/armv7e-m/libc.a(lib_a-puts.o)
                                          0x4 (size before relaxing)
 *fill*         0x00000000080191f4        0x4 
 .rodata.tinytens
                0x00000000080191f8       0x28 /usr/lib/gcc/arm-none-eabi/4.9.3/../../../arm-none-eabi/lib/armv7e-m/libc.a(lib_a-strtod.o)
 .rodata.fpinan.5307
                0x0000000008019220       0x14 /usr/lib/gcc/arm-none-eabi/4.9.3/../../../arm-none-eabi/lib/armv7e-m/libc.a(lib_a-strtod.o)
 .rodata.str1.4
                0x0000000008019234        0xf /usr/lib/gcc/arm-none-eabi/4.9.3/../../../arm-none-eabi/lib/armv7e-m/libc.a(lib_a-strtod.o)
                                         0x10 (size before relaxing)
 *fill*         0x0000000008019243        0x1 
 .rodata.fpi.5271
                0x0000000008019244       0x14 /usr/lib/gcc/arm-none-eabi/4.9.3/../../../arm-none-eabi/lib/armv7e-m/libc.a(lib_a-strtod.o)
 .rodata.zeroes.6926
                0x0000000008019258       0x10 /usr/lib/gcc/arm-none-eabi/4.9.3/../../../arm-none-eabi/lib/armv7e-m/libc.a(lib_a-vfprintf.o)
 .rodata.str1.4
                0x0000000008019268       0x42 /usr/lib/gcc/arm-none-eabi/4.9.3/../../../arm-none-eabi/lib/armv7e-m/libc.a(lib_a-vfprintf.o)
                                         0x44 (size before relaxing)
 *fill*         0x00000000080192aa        0x2 
 .rodata.blanks.6925
                0x00000000080192ac       0x10 /usr/lib/gcc/arm-none-eabi/4.9.3/../../../arm-none-eabi/lib/armv7e-m/libc.a(lib_a-vfprintf.o)
 .rodata._ctype_
                0x00000000080192bc      0x104 /usr/lib/gcc/arm-none-eabi/4.9.3/../../../arm-none-eabi/lib/armv7e-m/libc.a(lib_a-ctype_.o)
                0x00000000080192bc                _ctype_
 .rodata.str1.4
                0x00000000080193c0       0x10 /usr/lib/gcc/arm-none-eabi/4.9.3/../../../arm-none-eabi/lib/armv7e-m/libc.a(lib_a-dtoa.o)
                                         0x14 (size before relaxing)
 .rodata.__hexdig
                0x00000000080193d0      0x100 /usr/lib/gcc/arm-none-eabi/4.9.3/../../../arm-none-eabi/lib/armv7e-m/libc.a(lib_a-gdtoa-gethex.o)
                0x00000000080193d0                __hexdig
 .rodata.str1.4
                0x00000000080194d0        0xc /usr/lib/gcc/arm-none-eabi/4.9.3/../../../arm-none-eabi/lib/armv7e-m/libc.a(lib_a-locale.o)
                                         0x14 (size before relaxing)
 *fill*         0x00000000080194dc        0x4 
 .rodata.__mprec_tens
                0x00000000080194e0       0xc8 /usr/lib/gcc/arm-none-eabi/4.9.3/../../../arm-none-eabi/lib/armv7e-m/libc.a(lib_a-mprec.o)
                0x00000000080194e0                __mprec_tens
 .rodata.p05.5302
                0x00000000080195a8        0xc /usr/lib/gcc/arm-none-eabi/4.9.3/../../../arm-none-eabi/lib/armv7e-m/libc.a(lib_a-mprec.o)
 *fill*         0x00000000080195b4        0x4 
 .rodata.__mprec_bigtens
                0x00000000080195b8       0x28 /usr/lib/gcc/arm-none-eabi/4.9.3/../../../arm-none-eabi/lib/armv7e-m/libc.a(lib_a-mprec.o)
                0x00000000080195b8                __mprec_bigtens
 .rodata.__mprec_tinytens
                0x00000000080195e0       0x28 /usr/lib/gcc/arm-none-eabi/4.9.3/../../../arm-none-eabi/lib/armv7e-m/libc.a(lib_a-mprec.o)
                0x00000000080195e0                __mprec_tinytens
 .rodata.zeroes.6869
                0x0000000008019608       0x10 /usr/lib/gcc/arm-none-eabi/4.9.3/../../../arm-none-eabi/lib/armv7e-m/libc.a(lib_a-vfiprintf.o)
 .rodata.str1.4
                0x0000000008019618       0x30 /usr/lib/gcc/arm-none-eabi/4.9.3/../../../arm-none-eabi/lib/armv7e-m/libc.a(lib_a-vfiprintf.o)
 .rodata.blanks.6868
                0x0000000008019618       0x10 /usr/lib/gcc/arm-none-eabi/4.9.3/../../../arm-none-eabi/lib/armv7e-m/libc.a(lib_a-vfiprintf.o)
                0x0000000008019648                . = ALIGN (0x4)
                0x0000000008019648                _FLASH_end = ABSOLUTE (.)

.eh_frame       0x0000000008019628       0x70
 .eh_frame      0x0000000008019628       0x70 /usr/lib/gcc/arm-none-eabi/4.9.3/../../../arm-none-eabi/lib/armv7e-m/libc.a(lib_a-strcmp.o)

.rel.dyn        0x0000000008019698        0x0
 .rel.iplt      0x0000000008019698        0x0 ../Libraries/CMSIS/Device/ST/STM32F4xx/Source/Templates/gcc_ride7/startup_stm32f4xx.o

.data           0x0000000020000000      0x8e8 load address 0x0000000008019698
                0x0000000020000000                . = ALIGN (0x4)
                0x0000000020000000                _sdata = ABSOLUTE (.)
 *(.data)
 .data          0x0000000020000000        0x0 ../Libraries/CMSIS/Device/ST/STM32F4xx/Source/Templates/gcc_ride7/startup_stm32f4xx.o
 .data          0x0000000020000000        0x0 build/config_clock_flash.o
 .data          0x0000000020000000        0x0 build/general.o
 .data          0x0000000020000000        0x0 build/config_time.o
 .data          0x0000000020000000        0x0 build/stm32f4xx_it.o
 .data          0x0000000020000000        0x0 build/config_PWM.o
 .data          0x0000000020000000        0x4 build/syscall.o
                0x0000000020000000                environ
 .data          0x0000000020000004        0x0 build/config_encoder.o
 .data          0x0000000020000004        0x0 build/date_str.o
 .data          0x0000000020000004        0x0 build/usart.o
 .data          0x0000000020000004        0x0 build/startup.o
 .data          0x0000000020000004        0x0 build/adc.o
 .data          0x0000000020000004        0x0 build/prm_variable.o
 .data          0x0000000020000004        0x0 build/module_test.o
 .data          0x0000000020000004        0x0 build/prm_interface.o
 .data          0x0000000020000004        0x0 build/main.o
 .data          0x0000000020000004       0x14 ../Libraries/libstm32.a(system_stm32f4xx.o)
                0x0000000020000004                AHBPrescTable
                0x0000000020000014                SystemCoreClock
 .data          0x0000000020000018        0x0 ../Libraries/libstm32.a(stm32f4xx_gpio.o)
 .data          0x0000000020000018        0x0 ../Libraries/libstm32.a(stm32f4xx_dma.o)
 .data          0x0000000020000018       0x10 ../Libraries/libstm32.a(stm32f4xx_rcc.o)
 .data          0x0000000020000028        0x0 ../Libraries/libstm32.a(stm32f4xx_flash.o)
 .data          0x0000000020000028        0x0 ../Libraries/libstm32.a(misc.o)
 .data          0x0000000020000028        0x0 ../Libraries/libstm32.a(stm32f4xx_usart.o)
 .data          0x0000000020000028        0x0 ../Libraries/libstm32.a(stm32f4xx_adc.o)
 .data          0x0000000020000028        0x0 ../Libraries/libstm32.a(stm32f4xx_tim.o)
 .data          0x0000000020000028        0x0 /usr/lib/gcc/arm-none-eabi/4.9.3/armv7e-m/libgcc.a(_arm_addsubdf3.o)
 .data          0x0000000020000028        0x0 /usr/lib/gcc/arm-none-eabi/4.9.3/armv7e-m/libgcc.a(_arm_truncdfsf2.o)
 .data          0x0000000020000028        0x0 /usr/lib/gcc/arm-none-eabi/4.9.3/armv7e-m/libgcc.a(_arm_addsubsf3.o)
 .data          0x0000000020000028        0x0 /usr/lib/gcc/arm-none-eabi/4.9.3/armv7e-m/libgcc.a(_aeabi_uldivmod.o)
 .data          0x0000000020000028        0x0 /usr/lib/gcc/arm-none-eabi/4.9.3/armv7e-m/libgcc.a(_fixunssfdi.o)
 .data          0x0000000020000028        0x0 /usr/lib/gcc/arm-none-eabi/4.9.3/armv7e-m/libgcc.a(bpabi.o)
 .data          0x0000000020000028        0x0 /usr/lib/gcc/arm-none-eabi/4.9.3/armv7e-m/libgcc.a(_dvmd_tls.o)
 .data          0x0000000020000028        0x0 /usr/lib/gcc/arm-none-eabi/4.9.3/armv7e-m/libgcc.a(_arm_muldivdf3.o)
 .data          0x0000000020000028        0x0 /usr/lib/gcc/arm-none-eabi/4.9.3/armv7e-m/libgcc.a(_arm_fixunsdfsi.o)
 .data          0x0000000020000028        0x0 /usr/lib/gcc/arm-none-eabi/4.9.3/armv7e-m/libgcc.a(_divdi3.o)
 .data          0x0000000020000028        0x0 /usr/lib/gcc/arm-none-eabi/4.9.3/armv7e-m/libgcc.a(_udivdi3.o)
 .data          0x0000000020000028        0x0 /usr/lib/gcc/arm-none-eabi/4.9.3/../../../arm-none-eabi/lib/armv7e-m/libc.a(lib_a-abort.o)
 .data          0x0000000020000028        0x0 /usr/lib/gcc/arm-none-eabi/4.9.3/../../../arm-none-eabi/lib/armv7e-m/libc.a(lib_a-atof.o)
 .data          0x0000000020000028        0x0 /usr/lib/gcc/arm-none-eabi/4.9.3/../../../arm-none-eabi/lib/armv7e-m/libc.a(lib_a-atoi.o)
 .data          0x0000000020000028        0x0 /usr/lib/gcc/arm-none-eabi/4.9.3/../../../arm-none-eabi/lib/armv7e-m/libc.a(lib_a-fflush.o)
 .data          0x0000000020000028        0x0 /usr/lib/gcc/arm-none-eabi/4.9.3/../../../arm-none-eabi/lib/armv7e-m/libc.a(lib_a-findfp.o)
 .data          0x0000000020000028        0x0 /usr/lib/gcc/arm-none-eabi/4.9.3/../../../arm-none-eabi/lib/armv7e-m/libc.a(lib_a-freer.o)
 .data          0x0000000020000028        0x0 /usr/lib/gcc/arm-none-eabi/4.9.3/../../../arm-none-eabi/lib/armv7e-m/libc.a(lib_a-fwalk.o)
 .data          0x0000000020000028        0x0 /usr/lib/gcc/arm-none-eabi/4.9.3/../../../arm-none-eabi/lib/armv7e-m/libc.a(lib_a-impure.o)
 .data          0x0000000020000028        0x0 /usr/lib/gcc/arm-none-eabi/4.9.3/../../../arm-none-eabi/lib/armv7e-m/libc.a(lib_a-mallocr.o)
 .data          0x0000000020000028        0x0 /usr/lib/gcc/arm-none-eabi/4.9.3/../../../arm-none-eabi/lib/armv7e-m/libc.a(lib_a-memset.o)
 .data          0x0000000020000028        0x0 /usr/lib/gcc/arm-none-eabi/4.9.3/../../../arm-none-eabi/lib/armv7e-m/libc.a(lib_a-mlock.o)
 .data          0x0000000020000028        0x0 /usr/lib/gcc/arm-none-eabi/4.9.3/../../../arm-none-eabi/lib/armv7e-m/libc.a(lib_a-printf.o)
 .data          0x0000000020000028        0x0 /usr/lib/gcc/arm-none-eabi/4.9.3/../../../arm-none-eabi/lib/armv7e-m/libc.a(lib_a-puts.o)
 .data          0x0000000020000028        0x0 /usr/lib/gcc/arm-none-eabi/4.9.3/../../../arm-none-eabi/lib/armv7e-m/libc.a(lib_a-reent.o)
 .data          0x0000000020000028        0x0 /usr/lib/gcc/arm-none-eabi/4.9.3/../../../arm-none-eabi/lib/armv7e-m/libc.a(lib_a-sbrkr.o)
 .data          0x0000000020000028        0x0 /usr/lib/gcc/arm-none-eabi/4.9.3/../../../arm-none-eabi/lib/armv7e-m/libc.a(lib_a-signal.o)
 .data          0x0000000020000028        0x0 /usr/lib/gcc/arm-none-eabi/4.9.3/../../../arm-none-eabi/lib/armv7e-m/libc.a(lib_a-signalr.o)
 .data          0x0000000020000028        0x0 /usr/lib/gcc/arm-none-eabi/4.9.3/../../../arm-none-eabi/lib/armv7e-m/libc.a(lib_a-stdio.o)
 .data          0x0000000020000028        0x0 /usr/lib/gcc/arm-none-eabi/4.9.3/../../../arm-none-eabi/lib/armv7e-m/libc.a(lib_a-strlen.o)
 .data          0x0000000020000028        0x0 /usr/lib/gcc/arm-none-eabi/4.9.3/../../../arm-none-eabi/lib/armv7e-m/libc.a(lib_a-strncmp.o)
 .data          0x0000000020000028        0x0 /usr/lib/gcc/arm-none-eabi/4.9.3/../../../arm-none-eabi/lib/armv7e-m/libc.a(lib_a-strncpy.o)
 .data          0x0000000020000028        0x0 /usr/lib/gcc/arm-none-eabi/4.9.3/../../../arm-none-eabi/lib/armv7e-m/libc.a(lib_a-strtod.o)
 .data          0x0000000020000028        0x0 /usr/lib/gcc/arm-none-eabi/4.9.3/../../../arm-none-eabi/lib/armv7e-m/libc.a(lib_a-strtol.o)
 .data          0x0000000020000028        0x0 /usr/lib/gcc/arm-none-eabi/4.9.3/../../../arm-none-eabi/lib/armv7e-m/libc.a(lib_a-syswrite.o)
 .data          0x0000000020000028        0x0 /usr/lib/gcc/arm-none-eabi/4.9.3/../../../arm-none-eabi/lib/armv7e-m/libc.a(lib_a-vfprintf.o)
 .data          0x0000000020000028        0x0 /usr/lib/gcc/arm-none-eabi/4.9.3/../../../arm-none-eabi/lib/armv7e-m/libc.a(lib_a-writer.o)
 .data          0x0000000020000028        0x0 /usr/lib/gcc/arm-none-eabi/4.9.3/../../../arm-none-eabi/lib/armv7e-m/libc.a(lib_a-wsetup.o)
 .data          0x0000000020000028        0x0 /usr/lib/gcc/arm-none-eabi/4.9.3/../../../arm-none-eabi/lib/armv7e-m/libc.a(lib_a-closer.o)
 .data          0x0000000020000028        0x0 /usr/lib/gcc/arm-none-eabi/4.9.3/../../../arm-none-eabi/lib/armv7e-m/libc.a(lib_a-ctype_.o)
 .data          0x0000000020000028        0x0 /usr/lib/gcc/arm-none-eabi/4.9.3/../../../arm-none-eabi/lib/armv7e-m/libc.a(lib_a-dtoa.o)
 .data          0x0000000020000028        0x0 /usr/lib/gcc/arm-none-eabi/4.9.3/../../../arm-none-eabi/lib/armv7e-m/libc.a(lib_a-fclose.o)
 .data          0x0000000020000028        0x0 /usr/lib/gcc/arm-none-eabi/4.9.3/../../../arm-none-eabi/lib/armv7e-m/libc.a(lib_a-fvwrite.o)
 .data          0x0000000020000028        0x0 /usr/lib/gcc/arm-none-eabi/4.9.3/../../../arm-none-eabi/lib/armv7e-m/libc.a(lib_a-gdtoa-gethex.o)
 .data          0x0000000020000028        0x0 /usr/lib/gcc/arm-none-eabi/4.9.3/../../../arm-none-eabi/lib/armv7e-m/libc.a(lib_a-gdtoa-hexnan.o)
 .data          0x0000000020000028        0x0 /usr/lib/gcc/arm-none-eabi/4.9.3/../../../arm-none-eabi/lib/armv7e-m/libc.a(lib_a-locale.o)
 .data          0x0000000020000028        0x0 /usr/lib/gcc/arm-none-eabi/4.9.3/../../../arm-none-eabi/lib/armv7e-m/libc.a(lib_a-lseekr.o)
 .data          0x0000000020000028        0x0 /usr/lib/gcc/arm-none-eabi/4.9.3/../../../arm-none-eabi/lib/armv7e-m/libc.a(lib_a-makebuf.o)
 .data          0x0000000020000028        0x0 /usr/lib/gcc/arm-none-eabi/4.9.3/../../../arm-none-eabi/lib/armv7e-m/libc.a(lib_a-memchr.o)
 .data          0x0000000020000028        0x0 /usr/lib/gcc/arm-none-eabi/4.9.3/../../../arm-none-eabi/lib/armv7e-m/libc.a(lib_a-memcpy.o)
 .data          0x0000000020000028        0x0 /usr/lib/gcc/arm-none-eabi/4.9.3/../../../arm-none-eabi/lib/armv7e-m/libc.a(lib_a-memmove.o)
 .data          0x0000000020000028        0x0 /usr/lib/gcc/arm-none-eabi/4.9.3/../../../arm-none-eabi/lib/armv7e-m/libc.a(lib_a-mprec.o)
 .data          0x0000000020000028        0x0 /usr/lib/gcc/arm-none-eabi/4.9.3/../../../arm-none-eabi/lib/armv7e-m/libc.a(lib_a-readr.o)
 .data          0x0000000020000028        0x0 /usr/lib/gcc/arm-none-eabi/4.9.3/../../../arm-none-eabi/lib/armv7e-m/libc.a(lib_a-reallocr.o)
 .data          0x0000000020000028        0x0 /usr/lib/gcc/arm-none-eabi/4.9.3/../../../arm-none-eabi/lib/armv7e-m/libc.a(lib_a-s_fpclassify.o)
 .data          0x0000000020000028        0x0 /usr/lib/gcc/arm-none-eabi/4.9.3/../../../arm-none-eabi/lib/armv7e-m/libc.a(lib_a-sf_nan.o)
 .data          0x0000000020000028        0x0 /usr/lib/gcc/arm-none-eabi/4.9.3/../../../arm-none-eabi/lib/armv7e-m/libc.a(lib_a-strcmp.o)
 .data          0x0000000020000028        0x0 /usr/lib/gcc/arm-none-eabi/4.9.3/../../../arm-none-eabi/lib/armv7e-m/libc.a(lib_a-vfiprintf.o)
 .data          0x0000000020000028        0x0 /usr/lib/gcc/arm-none-eabi/4.9.3/../../../arm-none-eabi/lib/armv7e-m/libc.a(lib_a-callocr.o)
 .data          0x0000000020000028        0x0 /usr/lib/gcc/arm-none-eabi/4.9.3/../../../arm-none-eabi/lib/armv7e-m/libc.a(lib_a-fputwc.o)
 .data          0x0000000020000028        0x0 /usr/lib/gcc/arm-none-eabi/4.9.3/../../../arm-none-eabi/lib/armv7e-m/libc.a(lib_a-fstatr.o)
 .data          0x0000000020000028        0x0 /usr/lib/gcc/arm-none-eabi/4.9.3/../../../arm-none-eabi/lib/armv7e-m/libc.a(lib_a-isattyr.o)
 .data          0x0000000020000028        0x0 /usr/lib/gcc/arm-none-eabi/4.9.3/../../../arm-none-eabi/lib/armv7e-m/libc.a(lib_a-wbuf.o)
 .data          0x0000000020000028        0x0 /usr/lib/gcc/arm-none-eabi/4.9.3/../../../arm-none-eabi/lib/armv7e-m/libc.a(lib_a-wcrtomb.o)
 .data          0x0000000020000028        0x0 /usr/lib/gcc/arm-none-eabi/4.9.3/../../../arm-none-eabi/lib/armv7e-m/libc.a(lib_a-wctomb_r.o)
 .data          0x0000000020000028        0x0 /usr/lib/gcc/arm-none-eabi/4.9.3/armv7e-m/libgcc.a(_arm_cmpdf2.o)
 .data          0x0000000020000028        0x0 /usr/lib/gcc/arm-none-eabi/4.9.3/armv7e-m/libgcc.a(_arm_fixdfsi.o)
 *(.data.*)
 .data.impure_data
                0x0000000020000028      0x428 /usr/lib/gcc/arm-none-eabi/4.9.3/../../../arm-none-eabi/lib/armv7e-m/libc.a(lib_a-impure.o)
 .data._impure_ptr
                0x0000000020000450        0x4 /usr/lib/gcc/arm-none-eabi/4.9.3/../../../arm-none-eabi/lib/armv7e-m/libc.a(lib_a-impure.o)
                0x0000000020000450                _impure_ptr
 .data.__malloc_av_
                0x0000000020000454      0x408 /usr/lib/gcc/arm-none-eabi/4.9.3/../../../arm-none-eabi/lib/armv7e-m/libc.a(lib_a-mallocr.o)
                0x0000000020000454                __malloc_av_
 .data.__malloc_trim_threshold
                0x000000002000085c        0x4 /usr/lib/gcc/arm-none-eabi/4.9.3/../../../arm-none-eabi/lib/armv7e-m/libc.a(lib_a-mallocr.o)
                0x000000002000085c                __malloc_trim_threshold
 .data.__malloc_sbrk_base
                0x0000000020000860        0x4 /usr/lib/gcc/arm-none-eabi/4.9.3/../../../arm-none-eabi/lib/armv7e-m/libc.a(lib_a-mallocr.o)
                0x0000000020000860                __malloc_sbrk_base
 .data.__ctype_ptr__
                0x0000000020000864        0x4 /usr/lib/gcc/arm-none-eabi/4.9.3/../../../arm-none-eabi/lib/armv7e-m/libc.a(lib_a-ctype_.o)
                0x0000000020000864                __ctype_ptr__
 .data.lc_message_charset
                0x0000000020000868       0x20 /usr/lib/gcc/arm-none-eabi/4.9.3/../../../arm-none-eabi/lib/armv7e-m/libc.a(lib_a-locale.o)
 .data.lconv    0x0000000020000888       0x38 /usr/lib/gcc/arm-none-eabi/4.9.3/../../../arm-none-eabi/lib/armv7e-m/libc.a(lib_a-locale.o)
 .data.lc_ctype_charset
                0x00000000200008c0       0x20 /usr/lib/gcc/arm-none-eabi/4.9.3/../../../arm-none-eabi/lib/armv7e-m/libc.a(lib_a-locale.o)
 .data.__mb_cur_max
                0x00000000200008e0        0x4 /usr/lib/gcc/arm-none-eabi/4.9.3/../../../arm-none-eabi/lib/armv7e-m/libc.a(lib_a-locale.o)
                0x00000000200008e0                __mb_cur_max
 .data.__wctomb
                0x00000000200008e4        0x4 /usr/lib/gcc/arm-none-eabi/4.9.3/../../../arm-none-eabi/lib/armv7e-m/libc.a(lib_a-wctomb_r.o)
                0x00000000200008e4                __wctomb
                0x00000000200008e8                . = ALIGN (0x4)
                0x00000000200008e8                _edata = ABSOLUTE (.)
                0x0000000008019698                _sidata = LOADADDR (.data)
                0x0000000008019f80                _FLASH_end = (LOADADDR (.data) + SIZEOF (.data))

.igot.plt       0x00000000200008e8        0x0 load address 0x0000000008019f80
 .igot.plt      0x00000000200008e8        0x0 ../Libraries/CMSIS/Device/ST/STM32F4xx/Source/Templates/gcc_ride7/startup_stm32f4xx.o

.bss            0x00000000200008e8      0x16c load address 0x0000000008019f80
                0x00000000200008e8                . = ALIGN (0x4)
                0x00000000200008e8                _sbss = ABSOLUTE (.)
 *(.bss)
 .bss           0x00000000200008e8        0x0 ../Libraries/CMSIS/Device/ST/STM32F4xx/Source/Templates/gcc_ride7/startup_stm32f4xx.o
 .bss           0x00000000200008e8        0x0 build/config_clock_flash.o
 .bss           0x00000000200008e8        0x0 build/general.o
 .bss           0x00000000200008e8        0x0 build/config_time.o
 .bss           0x00000000200008e8        0x0 build/stm32f4xx_it.o
 .bss           0x00000000200008e8        0x0 build/config_PWM.o
 .bss           0x00000000200008e8        0x8 build/syscall.o
                0x00000000200008ec                __env
 .bss           0x00000000200008f0        0x0 build/config_encoder.o
 .bss           0x00000000200008f0        0x0 build/date_str.o
 .bss           0x00000000200008f0        0x0 build/usart.o
 .bss           0x00000000200008f0        0x0 build/startup.o
 .bss           0x00000000200008f0       0x14 build/adc.o
                0x00000000200008f0                time_count
                0x00000000200008fc                abs_time
                0x0000000020000900                duty_int_routine_max
 .bss           0x0000000020000904       0x18 build/prm_variable.o
                0x0000000020000904                write_count
                0x0000000020000908                I_gain
                0x000000002000090c                D_gain
                0x0000000020000910                P_gain
                0x0000000020000914                var2
                0x0000000020000918                var1
 .bss           0x000000002000091c        0x0 build/module_test.o
 .bss           0x000000002000091c        0x8 build/prm_interface.o
                0x000000002000091c                n_prm
                0x0000000020000920                prm
 .bss           0x0000000020000924        0x0 build/main.o
 .bss           0x0000000020000924        0x0 ../Libraries/libstm32.a(system_stm32f4xx.o)
 .bss           0x0000000020000924        0x0 ../Libraries/libstm32.a(stm32f4xx_gpio.o)
 .bss           0x0000000020000924        0x0 ../Libraries/libstm32.a(stm32f4xx_dma.o)
 .bss           0x0000000020000924        0x0 ../Libraries/libstm32.a(stm32f4xx_rcc.o)
 .bss           0x0000000020000924        0x0 ../Libraries/libstm32.a(stm32f4xx_flash.o)
 .bss           0x0000000020000924        0x0 ../Libraries/libstm32.a(misc.o)
 .bss           0x0000000020000924        0x0 ../Libraries/libstm32.a(stm32f4xx_usart.o)
 .bss           0x0000000020000924        0x0 ../Libraries/libstm32.a(stm32f4xx_adc.o)
 .bss           0x0000000020000924        0x0 ../Libraries/libstm32.a(stm32f4xx_tim.o)
 .bss           0x0000000020000924        0x0 /usr/lib/gcc/arm-none-eabi/4.9.3/armv7e-m/libgcc.a(_arm_addsubdf3.o)
 .bss           0x0000000020000924        0x0 /usr/lib/gcc/arm-none-eabi/4.9.3/armv7e-m/libgcc.a(_arm_truncdfsf2.o)
 .bss           0x0000000020000924        0x0 /usr/lib/gcc/arm-none-eabi/4.9.3/armv7e-m/libgcc.a(_arm_addsubsf3.o)
 .bss           0x0000000020000924        0x0 /usr/lib/gcc/arm-none-eabi/4.9.3/armv7e-m/libgcc.a(_aeabi_uldivmod.o)
 .bss           0x0000000020000924        0x0 /usr/lib/gcc/arm-none-eabi/4.9.3/armv7e-m/libgcc.a(_fixunssfdi.o)
 .bss           0x0000000020000924        0x0 /usr/lib/gcc/arm-none-eabi/4.9.3/armv7e-m/libgcc.a(bpabi.o)
 .bss           0x0000000020000924        0x0 /usr/lib/gcc/arm-none-eabi/4.9.3/armv7e-m/libgcc.a(_dvmd_tls.o)
 .bss           0x0000000020000924        0x0 /usr/lib/gcc/arm-none-eabi/4.9.3/armv7e-m/libgcc.a(_arm_muldivdf3.o)
 .bss           0x0000000020000924        0x0 /usr/lib/gcc/arm-none-eabi/4.9.3/armv7e-m/libgcc.a(_arm_fixunsdfsi.o)
 .bss           0x0000000020000924        0x0 /usr/lib/gcc/arm-none-eabi/4.9.3/armv7e-m/libgcc.a(_divdi3.o)
 .bss           0x0000000020000924        0x0 /usr/lib/gcc/arm-none-eabi/4.9.3/armv7e-m/libgcc.a(_udivdi3.o)
 .bss           0x0000000020000924        0x0 /usr/lib/gcc/arm-none-eabi/4.9.3/../../../arm-none-eabi/lib/armv7e-m/libc.a(lib_a-abort.o)
 .bss           0x0000000020000924        0x0 /usr/lib/gcc/arm-none-eabi/4.9.3/../../../arm-none-eabi/lib/armv7e-m/libc.a(lib_a-atof.o)
 .bss           0x0000000020000924        0x0 /usr/lib/gcc/arm-none-eabi/4.9.3/../../../arm-none-eabi/lib/armv7e-m/libc.a(lib_a-atoi.o)
 .bss           0x0000000020000924        0x0 /usr/lib/gcc/arm-none-eabi/4.9.3/../../../arm-none-eabi/lib/armv7e-m/libc.a(lib_a-fflush.o)
 .bss           0x0000000020000924        0x0 /usr/lib/gcc/arm-none-eabi/4.9.3/../../../arm-none-eabi/lib/armv7e-m/libc.a(lib_a-findfp.o)
 .bss           0x0000000020000924        0x0 /usr/lib/gcc/arm-none-eabi/4.9.3/../../../arm-none-eabi/lib/armv7e-m/libc.a(lib_a-freer.o)
 .bss           0x0000000020000924        0x0 /usr/lib/gcc/arm-none-eabi/4.9.3/../../../arm-none-eabi/lib/armv7e-m/libc.a(lib_a-fwalk.o)
 .bss           0x0000000020000924        0x0 /usr/lib/gcc/arm-none-eabi/4.9.3/../../../arm-none-eabi/lib/armv7e-m/libc.a(lib_a-impure.o)
 .bss           0x0000000020000924        0x0 /usr/lib/gcc/arm-none-eabi/4.9.3/../../../arm-none-eabi/lib/armv7e-m/libc.a(lib_a-mallocr.o)
 .bss           0x0000000020000924        0x0 /usr/lib/gcc/arm-none-eabi/4.9.3/../../../arm-none-eabi/lib/armv7e-m/libc.a(lib_a-memset.o)
 .bss           0x0000000020000924        0x0 /usr/lib/gcc/arm-none-eabi/4.9.3/../../../arm-none-eabi/lib/armv7e-m/libc.a(lib_a-mlock.o)
 .bss           0x0000000020000924        0x0 /usr/lib/gcc/arm-none-eabi/4.9.3/../../../arm-none-eabi/lib/armv7e-m/libc.a(lib_a-printf.o)
 .bss           0x0000000020000924        0x0 /usr/lib/gcc/arm-none-eabi/4.9.3/../../../arm-none-eabi/lib/armv7e-m/libc.a(lib_a-puts.o)
 .bss           0x0000000020000924        0x0 /usr/lib/gcc/arm-none-eabi/4.9.3/../../../arm-none-eabi/lib/armv7e-m/libc.a(lib_a-reent.o)
 .bss           0x0000000020000924        0x0 /usr/lib/gcc/arm-none-eabi/4.9.3/../../../arm-none-eabi/lib/armv7e-m/libc.a(lib_a-sbrkr.o)
 .bss           0x0000000020000924        0x0 /usr/lib/gcc/arm-none-eabi/4.9.3/../../../arm-none-eabi/lib/armv7e-m/libc.a(lib_a-signal.o)
 .bss           0x0000000020000924        0x0 /usr/lib/gcc/arm-none-eabi/4.9.3/../../../arm-none-eabi/lib/armv7e-m/libc.a(lib_a-signalr.o)
 .bss           0x0000000020000924        0x0 /usr/lib/gcc/arm-none-eabi/4.9.3/../../../arm-none-eabi/lib/armv7e-m/libc.a(lib_a-stdio.o)
 .bss           0x0000000020000924        0x0 /usr/lib/gcc/arm-none-eabi/4.9.3/../../../arm-none-eabi/lib/armv7e-m/libc.a(lib_a-strlen.o)
 .bss           0x0000000020000924        0x0 /usr/lib/gcc/arm-none-eabi/4.9.3/../../../arm-none-eabi/lib/armv7e-m/libc.a(lib_a-strncmp.o)
 .bss           0x0000000020000924        0x0 /usr/lib/gcc/arm-none-eabi/4.9.3/../../../arm-none-eabi/lib/armv7e-m/libc.a(lib_a-strncpy.o)
 .bss           0x0000000020000924        0x0 /usr/lib/gcc/arm-none-eabi/4.9.3/../../../arm-none-eabi/lib/armv7e-m/libc.a(lib_a-strtod.o)
 .bss           0x0000000020000924        0x0 /usr/lib/gcc/arm-none-eabi/4.9.3/../../../arm-none-eabi/lib/armv7e-m/libc.a(lib_a-strtol.o)
 .bss           0x0000000020000924        0x0 /usr/lib/gcc/arm-none-eabi/4.9.3/../../../arm-none-eabi/lib/armv7e-m/libc.a(lib_a-syswrite.o)
 .bss           0x0000000020000924        0x0 /usr/lib/gcc/arm-none-eabi/4.9.3/../../../arm-none-eabi/lib/armv7e-m/libc.a(lib_a-vfprintf.o)
 .bss           0x0000000020000924        0x0 /usr/lib/gcc/arm-none-eabi/4.9.3/../../../arm-none-eabi/lib/armv7e-m/libc.a(lib_a-writer.o)
 .bss           0x0000000020000924        0x0 /usr/lib/gcc/arm-none-eabi/4.9.3/../../../arm-none-eabi/lib/armv7e-m/libc.a(lib_a-wsetup.o)
 .bss           0x0000000020000924        0x0 /usr/lib/gcc/arm-none-eabi/4.9.3/../../../arm-none-eabi/lib/armv7e-m/libc.a(lib_a-closer.o)
 .bss           0x0000000020000924        0x0 /usr/lib/gcc/arm-none-eabi/4.9.3/../../../arm-none-eabi/lib/armv7e-m/libc.a(lib_a-ctype_.o)
 .bss           0x0000000020000924        0x0 /usr/lib/gcc/arm-none-eabi/4.9.3/../../../arm-none-eabi/lib/armv7e-m/libc.a(lib_a-dtoa.o)
 .bss           0x0000000020000924        0x0 /usr/lib/gcc/arm-none-eabi/4.9.3/../../../arm-none-eabi/lib/armv7e-m/libc.a(lib_a-fclose.o)
 .bss           0x0000000020000924        0x0 /usr/lib/gcc/arm-none-eabi/4.9.3/../../../arm-none-eabi/lib/armv7e-m/libc.a(lib_a-fvwrite.o)
 .bss           0x0000000020000924        0x0 /usr/lib/gcc/arm-none-eabi/4.9.3/../../../arm-none-eabi/lib/armv7e-m/libc.a(lib_a-gdtoa-gethex.o)
 .bss           0x0000000020000924        0x0 /usr/lib/gcc/arm-none-eabi/4.9.3/../../../arm-none-eabi/lib/armv7e-m/libc.a(lib_a-gdtoa-hexnan.o)
 .bss           0x0000000020000924        0x0 /usr/lib/gcc/arm-none-eabi/4.9.3/../../../arm-none-eabi/lib/armv7e-m/libc.a(lib_a-locale.o)
 .bss           0x0000000020000924        0x0 /usr/lib/gcc/arm-none-eabi/4.9.3/../../../arm-none-eabi/lib/armv7e-m/libc.a(lib_a-lseekr.o)
 .bss           0x0000000020000924        0x0 /usr/lib/gcc/arm-none-eabi/4.9.3/../../../arm-none-eabi/lib/armv7e-m/libc.a(lib_a-makebuf.o)
 .bss           0x0000000020000924        0x0 /usr/lib/gcc/arm-none-eabi/4.9.3/../../../arm-none-eabi/lib/armv7e-m/libc.a(lib_a-memchr.o)
 .bss           0x0000000020000924        0x0 /usr/lib/gcc/arm-none-eabi/4.9.3/../../../arm-none-eabi/lib/armv7e-m/libc.a(lib_a-memcpy.o)
 .bss           0x0000000020000924        0x0 /usr/lib/gcc/arm-none-eabi/4.9.3/../../../arm-none-eabi/lib/armv7e-m/libc.a(lib_a-memmove.o)
 .bss           0x0000000020000924        0x0 /usr/lib/gcc/arm-none-eabi/4.9.3/../../../arm-none-eabi/lib/armv7e-m/libc.a(lib_a-mprec.o)
 .bss           0x0000000020000924        0x0 /usr/lib/gcc/arm-none-eabi/4.9.3/../../../arm-none-eabi/lib/armv7e-m/libc.a(lib_a-readr.o)
 .bss           0x0000000020000924        0x0 /usr/lib/gcc/arm-none-eabi/4.9.3/../../../arm-none-eabi/lib/armv7e-m/libc.a(lib_a-reallocr.o)
 .bss           0x0000000020000924        0x0 /usr/lib/gcc/arm-none-eabi/4.9.3/../../../arm-none-eabi/lib/armv7e-m/libc.a(lib_a-s_fpclassify.o)
 .bss           0x0000000020000924        0x0 /usr/lib/gcc/arm-none-eabi/4.9.3/../../../arm-none-eabi/lib/armv7e-m/libc.a(lib_a-sf_nan.o)
 .bss           0x0000000020000924        0x0 /usr/lib/gcc/arm-none-eabi/4.9.3/../../../arm-none-eabi/lib/armv7e-m/libc.a(lib_a-strcmp.o)
 .bss           0x0000000020000924        0x0 /usr/lib/gcc/arm-none-eabi/4.9.3/../../../arm-none-eabi/lib/armv7e-m/libc.a(lib_a-vfiprintf.o)
 .bss           0x0000000020000924        0x0 /usr/lib/gcc/arm-none-eabi/4.9.3/../../../arm-none-eabi/lib/armv7e-m/libc.a(lib_a-callocr.o)
 .bss           0x0000000020000924        0x0 /usr/lib/gcc/arm-none-eabi/4.9.3/../../../arm-none-eabi/lib/armv7e-m/libc.a(lib_a-fputwc.o)
 .bss           0x0000000020000924        0x0 /usr/lib/gcc/arm-none-eabi/4.9.3/../../../arm-none-eabi/lib/armv7e-m/libc.a(lib_a-fstatr.o)
 .bss           0x0000000020000924        0x0 /usr/lib/gcc/arm-none-eabi/4.9.3/../../../arm-none-eabi/lib/armv7e-m/libc.a(lib_a-isattyr.o)
 .bss           0x0000000020000924        0x0 /usr/lib/gcc/arm-none-eabi/4.9.3/../../../arm-none-eabi/lib/armv7e-m/libc.a(lib_a-wbuf.o)
 .bss           0x0000000020000924        0x0 /usr/lib/gcc/arm-none-eabi/4.9.3/../../../arm-none-eabi/lib/armv7e-m/libc.a(lib_a-wcrtomb.o)
 .bss           0x0000000020000924        0x0 /usr/lib/gcc/arm-none-eabi/4.9.3/../../../arm-none-eabi/lib/armv7e-m/libc.a(lib_a-wctomb_r.o)
 .bss           0x0000000020000924        0x0 /usr/lib/gcc/arm-none-eabi/4.9.3/armv7e-m/libgcc.a(_arm_cmpdf2.o)
 .bss           0x0000000020000924        0x0 /usr/lib/gcc/arm-none-eabi/4.9.3/armv7e-m/libgcc.a(_arm_fixdfsi.o)
 *(.bss.*)
 .bss.__malloc_max_total_mem
                0x0000000020000924        0x4 /usr/lib/gcc/arm-none-eabi/4.9.3/../../../arm-none-eabi/lib/armv7e-m/libc.a(lib_a-mallocr.o)
                0x0000000020000924                __malloc_max_total_mem
 .bss.__malloc_max_sbrked_mem
                0x0000000020000928        0x4 /usr/lib/gcc/arm-none-eabi/4.9.3/../../../arm-none-eabi/lib/armv7e-m/libc.a(lib_a-mallocr.o)
                0x0000000020000928                __malloc_max_sbrked_mem
 .bss.__malloc_top_pad
                0x000000002000092c        0x4 /usr/lib/gcc/arm-none-eabi/4.9.3/../../../arm-none-eabi/lib/armv7e-m/libc.a(lib_a-mallocr.o)
                0x000000002000092c                __malloc_top_pad
 .bss.__malloc_current_mallinfo
                0x0000000020000930       0x28 /usr/lib/gcc/arm-none-eabi/4.9.3/../../../arm-none-eabi/lib/armv7e-m/libc.a(lib_a-mallocr.o)
                0x0000000020000930                __malloc_current_mallinfo
 .bss._PathLocale
                0x0000000020000958        0x4 /usr/lib/gcc/arm-none-eabi/4.9.3/../../../arm-none-eabi/lib/armv7e-m/libc.a(lib_a-locale.o)
                0x0000000020000958                _PathLocale
 .bss.__nlocale_changed
                0x000000002000095c        0x4 /usr/lib/gcc/arm-none-eabi/4.9.3/../../../arm-none-eabi/lib/armv7e-m/libc.a(lib_a-locale.o)
                0x000000002000095c                __nlocale_changed
 .bss.__mlocale_changed
                0x0000000020000960        0x4 /usr/lib/gcc/arm-none-eabi/4.9.3/../../../arm-none-eabi/lib/armv7e-m/libc.a(lib_a-locale.o)
                0x0000000020000960                __mlocale_changed
 *(COMMON)
 COMMON         0x0000000020000964        0x2 build/config_PWM.o
                0x0000000020000964                TIM_Period_PWM_motor
 *fill*         0x0000000020000966        0x2 
 COMMON         0x0000000020000968        0x4 build/syscall.o
                0x0000000020000968                init_heap_end
 COMMON         0x000000002000096c       0xcc build/usart.o
                0x000000002000096c                DMA_InitStructure_SIO_TX
                0x00000000200009a8                rxb
                0x00000000200009f0                txb
 COMMON         0x0000000020000a38       0x18 build/adc.o
                0x0000000020000a38                ADC_result
                0x0000000020000a44                subTIM_period
                0x0000000020000a48                duty_int_routine
                0x0000000020000a4c                subTIM_value
 COMMON         0x0000000020000a50        0x4 /usr/lib/gcc/arm-none-eabi/4.9.3/../../../arm-none-eabi/lib/armv7e-m/libc.a(lib_a-reent.o)
                0x0000000020000a50                errno
                0x0000000020000a54                . = ALIGN (0x4)
                0x0000000020000a54                _ebss = ABSOLUTE (.)
                0x0000000020000a54                _end = _ebss

.usrstack       0x0000000020000a54     0x1800 load address 0x0000000008019f80
                0x0000000020000a54                . = ALIGN (0x4)
                0x0000000020000a54                _susrstack = ABSOLUTE (.)
                0x0000000020002254                . = (. + _Minimum_Stack_Size)
 *fill*         0x0000000020000a54     0x1800 
                0x0000000020002254                . = ALIGN (0x4)
                0x0000000020002254                _eusrstack = ABSOLUTE (.)
                0x0000000020002254                _RAM_end = ABSOLUTE (.)

.empty_FLASH    0x0000000000000000    0x26080
                0x0000000000026080                . = ((ORIGIN (FLASH) + LENGTH (FLASH)) - _FLASH_end)
 *fill*         0x0000000000000000    0x26080 

.empty_RAM      0x0000000000000000    0x1ddac
                0x000000000001ddac                . = ((ORIGIN (RAM) + LENGTH (RAM)) - _RAM_end)
 *fill*         0x0000000000000000    0x1ddac 

DISCARD         0x0000000000000000     0x253c
 libc.a(*)
 libm.a(*)
 libgcc.a(*)
 *(.comment)
 .comment       0x0000000000000000       0x38 build/config_clock_flash.o
                                         0x39 (size before relaxing)
 .comment       0x0000000000000038       0x39 build/general.o
 .comment       0x0000000000000038       0x39 build/config_time.o
 .comment       0x0000000000000038       0x70 build/stm32f4xx_it.o
                                         0x71 (size before relaxing)
 .comment       0x00000000000000a8       0x39 build/config_PWM.o
 .comment       0x00000000000000a8       0x71 build/syscall.o
 .comment       0x00000000000000a8       0x39 build/config_encoder.o
 .comment       0x00000000000000a8       0x39 build/date_str.o
 .comment       0x00000000000000a8       0x71 build/usart.o
 .comment       0x00000000000000a8       0x39 build/startup.o
 .comment       0x00000000000000a8       0x39 build/adc.o
 .comment       0x00000000000000a8       0x39 build/prm_variable.o
 .comment       0x00000000000000a8       0x39 build/module_test.o
 .comment       0x00000000000000a8       0x39 build/prm_interface.o
 .comment       0x00000000000000a8       0x39 build/main.o
 .comment       0x00000000000000a8       0x71 ../Libraries/libstm32.a(system_stm32f4xx.o)
 .comment       0x00000000000000a8       0x39 ../Libraries/libstm32.a(stm32f4xx_gpio.o)
 .comment       0x00000000000000a8       0x39 ../Libraries/libstm32.a(stm32f4xx_dma.o)
 .comment       0x00000000000000a8       0x39 ../Libraries/libstm32.a(stm32f4xx_rcc.o)
 .comment       0x00000000000000a8       0x39 ../Libraries/libstm32.a(stm32f4xx_flash.o)
 .comment       0x00000000000000a8       0x39 ../Libraries/libstm32.a(misc.o)
 .comment       0x00000000000000a8       0x71 ../Libraries/libstm32.a(stm32f4xx_usart.o)
 .comment       0x00000000000000a8       0x39 ../Libraries/libstm32.a(stm32f4xx_adc.o)
 .comment       0x00000000000000a8       0x71 ../Libraries/libstm32.a(stm32f4xx_tim.o)
 .comment       0x00000000000000a8       0x39 /usr/lib/gcc/arm-none-eabi/4.9.3/armv7e-m/libgcc.a(_fixunssfdi.o)
 .comment       0x00000000000000a8       0x39 /usr/lib/gcc/arm-none-eabi/4.9.3/armv7e-m/libgcc.a(bpabi.o)
 .comment       0x00000000000000a8       0x39 /usr/lib/gcc/arm-none-eabi/4.9.3/armv7e-m/libgcc.a(_divdi3.o)
 .comment       0x00000000000000a8       0x39 /usr/lib/gcc/arm-none-eabi/4.9.3/armv7e-m/libgcc.a(_udivdi3.o)
 .comment       0x00000000000000a8       0x38 /usr/lib/gcc/arm-none-eabi/4.9.3/../../../arm-none-eabi/lib/armv7e-m/libc.a(lib_a-abort.o)
                                         0x39 (size before relaxing)
 .comment       0x00000000000000e0       0x39 /usr/lib/gcc/arm-none-eabi/4.9.3/../../../arm-none-eabi/lib/armv7e-m/libc.a(lib_a-atof.o)
 .comment       0x00000000000000e0       0x39 /usr/lib/gcc/arm-none-eabi/4.9.3/../../../arm-none-eabi/lib/armv7e-m/libc.a(lib_a-atoi.o)
 .comment       0x00000000000000e0       0x39 /usr/lib/gcc/arm-none-eabi/4.9.3/../../../arm-none-eabi/lib/armv7e-m/libc.a(lib_a-fflush.o)
 .comment       0x00000000000000e0       0x39 /usr/lib/gcc/arm-none-eabi/4.9.3/../../../arm-none-eabi/lib/armv7e-m/libc.a(lib_a-findfp.o)
 .comment       0x00000000000000e0       0x39 /usr/lib/gcc/arm-none-eabi/4.9.3/../../../arm-none-eabi/lib/armv7e-m/libc.a(lib_a-freer.o)
 .comment       0x00000000000000e0       0x39 /usr/lib/gcc/arm-none-eabi/4.9.3/../../../arm-none-eabi/lib/armv7e-m/libc.a(lib_a-fwalk.o)
 .comment       0x00000000000000e0       0x39 /usr/lib/gcc/arm-none-eabi/4.9.3/../../../arm-none-eabi/lib/armv7e-m/libc.a(lib_a-impure.o)
 .comment       0x00000000000000e0       0x39 /usr/lib/gcc/arm-none-eabi/4.9.3/../../../arm-none-eabi/lib/armv7e-m/libc.a(lib_a-mallocr.o)
 .comment       0x00000000000000e0       0x39 /usr/lib/gcc/arm-none-eabi/4.9.3/../../../arm-none-eabi/lib/armv7e-m/libc.a(lib_a-memset.o)
 .comment       0x00000000000000e0       0x39 /usr/lib/gcc/arm-none-eabi/4.9.3/../../../arm-none-eabi/lib/armv7e-m/libc.a(lib_a-mlock.o)
 .comment       0x00000000000000e0       0x39 /usr/lib/gcc/arm-none-eabi/4.9.3/../../../arm-none-eabi/lib/armv7e-m/libc.a(lib_a-printf.o)
 .comment       0x00000000000000e0       0x39 /usr/lib/gcc/arm-none-eabi/4.9.3/../../../arm-none-eabi/lib/armv7e-m/libc.a(lib_a-puts.o)
 .comment       0x00000000000000e0       0x39 /usr/lib/gcc/arm-none-eabi/4.9.3/../../../arm-none-eabi/lib/armv7e-m/libc.a(lib_a-reent.o)
 .comment       0x00000000000000e0       0x39 /usr/lib/gcc/arm-none-eabi/4.9.3/../../../arm-none-eabi/lib/armv7e-m/libc.a(lib_a-sbrkr.o)
 .comment       0x00000000000000e0       0x39 /usr/lib/gcc/arm-none-eabi/4.9.3/../../../arm-none-eabi/lib/armv7e-m/libc.a(lib_a-signal.o)
 .comment       0x00000000000000e0       0x39 /usr/lib/gcc/arm-none-eabi/4.9.3/../../../arm-none-eabi/lib/armv7e-m/libc.a(lib_a-signalr.o)
 .comment       0x00000000000000e0       0x39 /usr/lib/gcc/arm-none-eabi/4.9.3/../../../arm-none-eabi/lib/armv7e-m/libc.a(lib_a-stdio.o)
 .comment       0x00000000000000e0       0x39 /usr/lib/gcc/arm-none-eabi/4.9.3/../../../arm-none-eabi/lib/armv7e-m/libc.a(lib_a-strlen.o)
 .comment       0x00000000000000e0       0x39 /usr/lib/gcc/arm-none-eabi/4.9.3/../../../arm-none-eabi/lib/armv7e-m/libc.a(lib_a-strncmp.o)
 .comment       0x00000000000000e0       0x39 /usr/lib/gcc/arm-none-eabi/4.9.3/../../../arm-none-eabi/lib/armv7e-m/libc.a(lib_a-strncpy.o)
 .comment       0x00000000000000e0       0x39 /usr/lib/gcc/arm-none-eabi/4.9.3/../../../arm-none-eabi/lib/armv7e-m/libc.a(lib_a-strtod.o)
 .comment       0x00000000000000e0       0x39 /usr/lib/gcc/arm-none-eabi/4.9.3/../../../arm-none-eabi/lib/armv7e-m/libc.a(lib_a-strtol.o)
 .comment       0x00000000000000e0       0x39 /usr/lib/gcc/arm-none-eabi/4.9.3/../../../arm-none-eabi/lib/armv7e-m/libc.a(lib_a-syswrite.o)
 .comment       0x00000000000000e0       0x39 /usr/lib/gcc/arm-none-eabi/4.9.3/../../../arm-none-eabi/lib/armv7e-m/libc.a(lib_a-vfprintf.o)
 .comment       0x00000000000000e0       0x39 /usr/lib/gcc/arm-none-eabi/4.9.3/../../../arm-none-eabi/lib/armv7e-m/libc.a(lib_a-writer.o)
 .comment       0x00000000000000e0       0x39 /usr/lib/gcc/arm-none-eabi/4.9.3/../../../arm-none-eabi/lib/armv7e-m/libc.a(lib_a-wsetup.o)
 .comment       0x00000000000000e0       0x39 /usr/lib/gcc/arm-none-eabi/4.9.3/../../../arm-none-eabi/lib/armv7e-m/libc.a(lib_a-closer.o)
 .comment       0x00000000000000e0       0x39 /usr/lib/gcc/arm-none-eabi/4.9.3/../../../arm-none-eabi/lib/armv7e-m/libc.a(lib_a-ctype_.o)
 .comment       0x00000000000000e0       0x39 /usr/lib/gcc/arm-none-eabi/4.9.3/../../../arm-none-eabi/lib/armv7e-m/libc.a(lib_a-dtoa.o)
 .comment       0x00000000000000e0       0x39 /usr/lib/gcc/arm-none-eabi/4.9.3/../../../arm-none-eabi/lib/armv7e-m/libc.a(lib_a-fclose.o)
 .comment       0x00000000000000e0       0x39 /usr/lib/gcc/arm-none-eabi/4.9.3/../../../arm-none-eabi/lib/armv7e-m/libc.a(lib_a-fvwrite.o)
 .comment       0x00000000000000e0       0x39 /usr/lib/gcc/arm-none-eabi/4.9.3/../../../arm-none-eabi/lib/armv7e-m/libc.a(lib_a-gdtoa-gethex.o)
 .comment       0x00000000000000e0       0x39 /usr/lib/gcc/arm-none-eabi/4.9.3/../../../arm-none-eabi/lib/armv7e-m/libc.a(lib_a-gdtoa-hexnan.o)
 .comment       0x00000000000000e0       0x39 /usr/lib/gcc/arm-none-eabi/4.9.3/../../../arm-none-eabi/lib/armv7e-m/libc.a(lib_a-locale.o)
 .comment       0x00000000000000e0       0x39 /usr/lib/gcc/arm-none-eabi/4.9.3/../../../arm-none-eabi/lib/armv7e-m/libc.a(lib_a-lseekr.o)
 .comment       0x00000000000000e0       0x39 /usr/lib/gcc/arm-none-eabi/4.9.3/../../../arm-none-eabi/lib/armv7e-m/libc.a(lib_a-makebuf.o)
 .comment       0x00000000000000e0       0x39 /usr/lib/gcc/arm-none-eabi/4.9.3/../../../arm-none-eabi/lib/armv7e-m/libc.a(lib_a-memchr.o)
 .comment       0x00000000000000e0       0x39 /usr/lib/gcc/arm-none-eabi/4.9.3/../../../arm-none-eabi/lib/armv7e-m/libc.a(lib_a-memmove.o)
 .comment       0x00000000000000e0       0x39 /usr/lib/gcc/arm-none-eabi/4.9.3/../../../arm-none-eabi/lib/armv7e-m/libc.a(lib_a-mprec.o)
 .comment       0x00000000000000e0       0x39 /usr/lib/gcc/arm-none-eabi/4.9.3/../../../arm-none-eabi/lib/armv7e-m/libc.a(lib_a-readr.o)
 .comment       0x00000000000000e0       0x39 /usr/lib/gcc/arm-none-eabi/4.9.3/../../../arm-none-eabi/lib/armv7e-m/libc.a(lib_a-reallocr.o)
 .comment       0x00000000000000e0       0x39 /usr/lib/gcc/arm-none-eabi/4.9.3/../../../arm-none-eabi/lib/armv7e-m/libc.a(lib_a-s_fpclassify.o)
 .comment       0x00000000000000e0       0x39 /usr/lib/gcc/arm-none-eabi/4.9.3/../../../arm-none-eabi/lib/armv7e-m/libc.a(lib_a-sf_nan.o)
 .comment       0x00000000000000e0       0x39 /usr/lib/gcc/arm-none-eabi/4.9.3/../../../arm-none-eabi/lib/armv7e-m/libc.a(lib_a-vfiprintf.o)
 .comment       0x00000000000000e0       0x39 /usr/lib/gcc/arm-none-eabi/4.9.3/../../../arm-none-eabi/lib/armv7e-m/libc.a(lib_a-callocr.o)
 .comment       0x00000000000000e0       0x39 /usr/lib/gcc/arm-none-eabi/4.9.3/../../../arm-none-eabi/lib/armv7e-m/libc.a(lib_a-fputwc.o)
 .comment       0x00000000000000e0       0x39 /usr/lib/gcc/arm-none-eabi/4.9.3/../../../arm-none-eabi/lib/armv7e-m/libc.a(lib_a-fstatr.o)
 .comment       0x00000000000000e0       0x39 /usr/lib/gcc/arm-none-eabi/4.9.3/../../../arm-none-eabi/lib/armv7e-m/libc.a(lib_a-isattyr.o)
 .comment       0x00000000000000e0       0x39 /usr/lib/gcc/arm-none-eabi/4.9.3/../../../arm-none-eabi/lib/armv7e-m/libc.a(lib_a-wbuf.o)
 .comment       0x00000000000000e0       0x39 /usr/lib/gcc/arm-none-eabi/4.9.3/../../../arm-none-eabi/lib/armv7e-m/libc.a(lib_a-wcrtomb.o)
 .comment       0x00000000000000e0       0x39 /usr/lib/gcc/arm-none-eabi/4.9.3/../../../arm-none-eabi/lib/armv7e-m/libc.a(lib_a-wctomb_r.o)
 *(.ARM.attributes)
 .ARM.attributes
                0x00000000000000e0       0x21 ../Libraries/CMSIS/Device/ST/STM32F4xx/Source/Templates/gcc_ride7/startup_stm32f4xx.o
 .ARM.attributes
                0x0000000000000101       0x37 build/config_clock_flash.o
 .ARM.attributes
                0x0000000000000138       0x37 build/general.o
 .ARM.attributes
                0x000000000000016f       0x37 build/config_time.o
 .ARM.attributes
                0x00000000000001a6       0x37 build/stm32f4xx_it.o
 .ARM.attributes
                0x00000000000001dd       0x37 build/config_PWM.o
 .ARM.attributes
                0x0000000000000214       0x37 build/syscall.o
 .ARM.attributes
                0x000000000000024b       0x37 build/config_encoder.o
 .ARM.attributes
                0x0000000000000282       0x37 build/date_str.o
 .ARM.attributes
                0x00000000000002b9       0x37 build/usart.o
 .ARM.attributes
                0x00000000000002f0       0x37 build/startup.o
 .ARM.attributes
                0x0000000000000327       0x37 build/adc.o
 .ARM.attributes
                0x000000000000035e       0x37 build/prm_variable.o
 .ARM.attributes
                0x0000000000000395       0x37 build/module_test.o
 .ARM.attributes
                0x00000000000003cc       0x37 build/prm_interface.o
 .ARM.attributes
                0x0000000000000403       0x37 build/main.o
 .ARM.attributes
                0x000000000000043a       0x37 ../Libraries/libstm32.a(system_stm32f4xx.o)
 .ARM.attributes
                0x0000000000000471       0x37 ../Libraries/libstm32.a(stm32f4xx_gpio.o)
 .ARM.attributes
                0x00000000000004a8       0x37 ../Libraries/libstm32.a(stm32f4xx_dma.o)
 .ARM.attributes
                0x00000000000004df       0x37 ../Libraries/libstm32.a(stm32f4xx_rcc.o)
 .ARM.attributes
                0x0000000000000516       0x37 ../Libraries/libstm32.a(stm32f4xx_flash.o)
 .ARM.attributes
                0x000000000000054d       0x37 ../Libraries/libstm32.a(misc.o)
 .ARM.attributes
                0x0000000000000584       0x37 ../Libraries/libstm32.a(stm32f4xx_usart.o)
 .ARM.attributes
                0x00000000000005bb       0x37 ../Libraries/libstm32.a(stm32f4xx_adc.o)
 .ARM.attributes
                0x00000000000005f2       0x37 ../Libraries/libstm32.a(stm32f4xx_tim.o)
 .ARM.attributes
                0x0000000000000629       0x1e /usr/lib/gcc/arm-none-eabi/4.9.3/armv7e-m/libgcc.a(_arm_addsubdf3.o)
 .ARM.attributes
                0x0000000000000647       0x1e /usr/lib/gcc/arm-none-eabi/4.9.3/armv7e-m/libgcc.a(_arm_truncdfsf2.o)
 .ARM.attributes
                0x0000000000000665       0x1e /usr/lib/gcc/arm-none-eabi/4.9.3/armv7e-m/libgcc.a(_arm_addsubsf3.o)
 .ARM.attributes
                0x0000000000000683       0x1e /usr/lib/gcc/arm-none-eabi/4.9.3/armv7e-m/libgcc.a(_aeabi_uldivmod.o)
 .ARM.attributes
                0x00000000000006a1       0x2e /usr/lib/gcc/arm-none-eabi/4.9.3/armv7e-m/libgcc.a(_fixunssfdi.o)
 .ARM.attributes
                0x00000000000006cf       0x2e /usr/lib/gcc/arm-none-eabi/4.9.3/armv7e-m/libgcc.a(bpabi.o)
 .ARM.attributes
                0x00000000000006fd       0x1e /usr/lib/gcc/arm-none-eabi/4.9.3/armv7e-m/libgcc.a(_dvmd_tls.o)
 .ARM.attributes
                0x000000000000071b       0x1e /usr/lib/gcc/arm-none-eabi/4.9.3/armv7e-m/libgcc.a(_arm_muldivdf3.o)
 .ARM.attributes
                0x0000000000000739       0x1e /usr/lib/gcc/arm-none-eabi/4.9.3/armv7e-m/libgcc.a(_arm_fixunsdfsi.o)
 .ARM.attributes
                0x0000000000000757       0x2e /usr/lib/gcc/arm-none-eabi/4.9.3/armv7e-m/libgcc.a(_divdi3.o)
 .ARM.attributes
                0x0000000000000785       0x2e /usr/lib/gcc/arm-none-eabi/4.9.3/armv7e-m/libgcc.a(_udivdi3.o)
 .ARM.attributes
                0x00000000000007b3       0x2e /usr/lib/gcc/arm-none-eabi/4.9.3/../../../arm-none-eabi/lib/armv7e-m/libc.a(lib_a-abort.o)
 .ARM.attributes
                0x00000000000007e1       0x2e /usr/lib/gcc/arm-none-eabi/4.9.3/../../../arm-none-eabi/lib/armv7e-m/libc.a(lib_a-atof.o)
 .ARM.attributes
                0x000000000000080f       0x2e /usr/lib/gcc/arm-none-eabi/4.9.3/../../../arm-none-eabi/lib/armv7e-m/libc.a(lib_a-atoi.o)
 .ARM.attributes
                0x000000000000083d       0x2e /usr/lib/gcc/arm-none-eabi/4.9.3/../../../arm-none-eabi/lib/armv7e-m/libc.a(lib_a-fflush.o)
 .ARM.attributes
                0x000000000000086b       0x2e /usr/lib/gcc/arm-none-eabi/4.9.3/../../../arm-none-eabi/lib/armv7e-m/libc.a(lib_a-findfp.o)
 .ARM.attributes
                0x0000000000000899       0x2e /usr/lib/gcc/arm-none-eabi/4.9.3/../../../arm-none-eabi/lib/armv7e-m/libc.a(lib_a-freer.o)
 .ARM.attributes
                0x00000000000008c7       0x2e /usr/lib/gcc/arm-none-eabi/4.9.3/../../../arm-none-eabi/lib/armv7e-m/libc.a(lib_a-fwalk.o)
 .ARM.attributes
                0x00000000000008f5       0x2e /usr/lib/gcc/arm-none-eabi/4.9.3/../../../arm-none-eabi/lib/armv7e-m/libc.a(lib_a-impure.o)
 .ARM.attributes
                0x0000000000000923       0x2e /usr/lib/gcc/arm-none-eabi/4.9.3/../../../arm-none-eabi/lib/armv7e-m/libc.a(lib_a-mallocr.o)
 .ARM.attributes
                0x0000000000000951       0x2e /usr/lib/gcc/arm-none-eabi/4.9.3/../../../arm-none-eabi/lib/armv7e-m/libc.a(lib_a-memset.o)
 .ARM.attributes
                0x000000000000097f       0x2e /usr/lib/gcc/arm-none-eabi/4.9.3/../../../arm-none-eabi/lib/armv7e-m/libc.a(lib_a-mlock.o)
 .ARM.attributes
                0x00000000000009ad       0x2e /usr/lib/gcc/arm-none-eabi/4.9.3/../../../arm-none-eabi/lib/armv7e-m/libc.a(lib_a-printf.o)
 .ARM.attributes
                0x00000000000009db       0x2e /usr/lib/gcc/arm-none-eabi/4.9.3/../../../arm-none-eabi/lib/armv7e-m/libc.a(lib_a-puts.o)
 .ARM.attributes
                0x0000000000000a09       0x2e /usr/lib/gcc/arm-none-eabi/4.9.3/../../../arm-none-eabi/lib/armv7e-m/libc.a(lib_a-reent.o)
 .ARM.attributes
                0x0000000000000a37       0x2e /usr/lib/gcc/arm-none-eabi/4.9.3/../../../arm-none-eabi/lib/armv7e-m/libc.a(lib_a-sbrkr.o)
 .ARM.attributes
                0x0000000000000a65       0x2e /usr/lib/gcc/arm-none-eabi/4.9.3/../../../arm-none-eabi/lib/armv7e-m/libc.a(lib_a-signal.o)
 .ARM.attributes
                0x0000000000000a93       0x2e /usr/lib/gcc/arm-none-eabi/4.9.3/../../../arm-none-eabi/lib/armv7e-m/libc.a(lib_a-signalr.o)
 .ARM.attributes
                0x0000000000000ac1       0x2e /usr/lib/gcc/arm-none-eabi/4.9.3/../../../arm-none-eabi/lib/armv7e-m/libc.a(lib_a-stdio.o)
 .ARM.attributes
                0x0000000000000aef       0x2e /usr/lib/gcc/arm-none-eabi/4.9.3/../../../arm-none-eabi/lib/armv7e-m/libc.a(lib_a-strlen.o)
 .ARM.attributes
                0x0000000000000b1d       0x2e /usr/lib/gcc/arm-none-eabi/4.9.3/../../../arm-none-eabi/lib/armv7e-m/libc.a(lib_a-strncmp.o)
 .ARM.attributes
                0x0000000000000b4b       0x2e /usr/lib/gcc/arm-none-eabi/4.9.3/../../../arm-none-eabi/lib/armv7e-m/libc.a(lib_a-strncpy.o)
 .ARM.attributes
                0x0000000000000b79       0x2e /usr/lib/gcc/arm-none-eabi/4.9.3/../../../arm-none-eabi/lib/armv7e-m/libc.a(lib_a-strtod.o)
 .ARM.attributes
                0x0000000000000ba7       0x2e /usr/lib/gcc/arm-none-eabi/4.9.3/../../../arm-none-eabi/lib/armv7e-m/libc.a(lib_a-strtol.o)
 .ARM.attributes
                0x0000000000000bd5       0x2e /usr/lib/gcc/arm-none-eabi/4.9.3/../../../arm-none-eabi/lib/armv7e-m/libc.a(lib_a-syswrite.o)
 .ARM.attributes
                0x0000000000000c03       0x2e /usr/lib/gcc/arm-none-eabi/4.9.3/../../../arm-none-eabi/lib/armv7e-m/libc.a(lib_a-vfprintf.o)
 .ARM.attributes
                0x0000000000000c31       0x2e /usr/lib/gcc/arm-none-eabi/4.9.3/../../../arm-none-eabi/lib/armv7e-m/libc.a(lib_a-writer.o)
 .ARM.attributes
                0x0000000000000c5f       0x2e /usr/lib/gcc/arm-none-eabi/4.9.3/../../../arm-none-eabi/lib/armv7e-m/libc.a(lib_a-wsetup.o)
 .ARM.attributes
                0x0000000000000c8d       0x2e /usr/lib/gcc/arm-none-eabi/4.9.3/../../../arm-none-eabi/lib/armv7e-m/libc.a(lib_a-closer.o)
 .ARM.attributes
                0x0000000000000cbb       0x2e /usr/lib/gcc/arm-none-eabi/4.9.3/../../../arm-none-eabi/lib/armv7e-m/libc.a(lib_a-ctype_.o)
 .ARM.attributes
                0x0000000000000ce9       0x2e /usr/lib/gcc/arm-none-eabi/4.9.3/../../../arm-none-eabi/lib/armv7e-m/libc.a(lib_a-dtoa.o)
 .ARM.attributes
                0x0000000000000d17       0x2e /usr/lib/gcc/arm-none-eabi/4.9.3/../../../arm-none-eabi/lib/armv7e-m/libc.a(lib_a-fclose.o)
 .ARM.attributes
                0x0000000000000d45       0x2e /usr/lib/gcc/arm-none-eabi/4.9.3/../../../arm-none-eabi/lib/armv7e-m/libc.a(lib_a-fvwrite.o)
 .ARM.attributes
                0x0000000000000d73       0x2e /usr/lib/gcc/arm-none-eabi/4.9.3/../../../arm-none-eabi/lib/armv7e-m/libc.a(lib_a-gdtoa-gethex.o)
 .ARM.attributes
                0x0000000000000da1       0x2e /usr/lib/gcc/arm-none-eabi/4.9.3/../../../arm-none-eabi/lib/armv7e-m/libc.a(lib_a-gdtoa-hexnan.o)
 .ARM.attributes
                0x0000000000000dcf       0x2e /usr/lib/gcc/arm-none-eabi/4.9.3/../../../arm-none-eabi/lib/armv7e-m/libc.a(lib_a-locale.o)
 .ARM.attributes
                0x0000000000000dfd       0x2e /usr/lib/gcc/arm-none-eabi/4.9.3/../../../arm-none-eabi/lib/armv7e-m/libc.a(lib_a-lseekr.o)
 .ARM.attributes
                0x0000000000000e2b       0x2e /usr/lib/gcc/arm-none-eabi/4.9.3/../../../arm-none-eabi/lib/armv7e-m/libc.a(lib_a-makebuf.o)
 .ARM.attributes
                0x0000000000000e59       0x2e /usr/lib/gcc/arm-none-eabi/4.9.3/../../../arm-none-eabi/lib/armv7e-m/libc.a(lib_a-memchr.o)
 .ARM.attributes
                0x0000000000000e87       0x1c /usr/lib/gcc/arm-none-eabi/4.9.3/../../../arm-none-eabi/lib/armv7e-m/libc.a(lib_a-memcpy.o)
 .ARM.attributes
                0x0000000000000ea3       0x2e /usr/lib/gcc/arm-none-eabi/4.9.3/../../../arm-none-eabi/lib/armv7e-m/libc.a(lib_a-memmove.o)
 .ARM.attributes
                0x0000000000000ed1       0x2e /usr/lib/gcc/arm-none-eabi/4.9.3/../../../arm-none-eabi/lib/armv7e-m/libc.a(lib_a-mprec.o)
 .ARM.attributes
                0x0000000000000eff       0x2e /usr/lib/gcc/arm-none-eabi/4.9.3/../../../arm-none-eabi/lib/armv7e-m/libc.a(lib_a-readr.o)
 .ARM.attributes
                0x0000000000000f2d       0x2e /usr/lib/gcc/arm-none-eabi/4.9.3/../../../arm-none-eabi/lib/armv7e-m/libc.a(lib_a-reallocr.o)
 .ARM.attributes
                0x0000000000000f5b       0x2e /usr/lib/gcc/arm-none-eabi/4.9.3/../../../arm-none-eabi/lib/armv7e-m/libc.a(lib_a-s_fpclassify.o)
 .ARM.attributes
                0x0000000000000f89       0x2e /usr/lib/gcc/arm-none-eabi/4.9.3/../../../arm-none-eabi/lib/armv7e-m/libc.a(lib_a-sf_nan.o)
 .ARM.attributes
                0x0000000000000fb7       0x1c /usr/lib/gcc/arm-none-eabi/4.9.3/../../../arm-none-eabi/lib/armv7e-m/libc.a(lib_a-strcmp.o)
 .ARM.attributes
                0x0000000000000fd3       0x2e /usr/lib/gcc/arm-none-eabi/4.9.3/../../../arm-none-eabi/lib/armv7e-m/libc.a(lib_a-vfiprintf.o)
 .ARM.attributes
                0x0000000000001001       0x2e /usr/lib/gcc/arm-none-eabi/4.9.3/../../../arm-none-eabi/lib/armv7e-m/libc.a(lib_a-callocr.o)
 .ARM.attributes
                0x000000000000102f       0x2e /usr/lib/gcc/arm-none-eabi/4.9.3/../../../arm-none-eabi/lib/armv7e-m/libc.a(lib_a-fputwc.o)
 .ARM.attributes
                0x000000000000105d       0x2e /usr/lib/gcc/arm-none-eabi/4.9.3/../../../arm-none-eabi/lib/armv7e-m/libc.a(lib_a-fstatr.o)
 .ARM.attributes
                0x000000000000108b       0x2e /usr/lib/gcc/arm-none-eabi/4.9.3/../../../arm-none-eabi/lib/armv7e-m/libc.a(lib_a-isattyr.o)
 .ARM.attributes
                0x00000000000010b9       0x2e /usr/lib/gcc/arm-none-eabi/4.9.3/../../../arm-none-eabi/lib/armv7e-m/libc.a(lib_a-wbuf.o)
 .ARM.attributes
                0x00000000000010e7       0x2e /usr/lib/gcc/arm-none-eabi/4.9.3/../../../arm-none-eabi/lib/armv7e-m/libc.a(lib_a-wcrtomb.o)
 .ARM.attributes
                0x0000000000001115       0x2e /usr/lib/gcc/arm-none-eabi/4.9.3/../../../arm-none-eabi/lib/armv7e-m/libc.a(lib_a-wctomb_r.o)
 .ARM.attributes
                0x0000000000001143       0x1e /usr/lib/gcc/arm-none-eabi/4.9.3/armv7e-m/libgcc.a(_arm_cmpdf2.o)
 .ARM.attributes
                0x0000000000001161       0x1e /usr/lib/gcc/arm-none-eabi/4.9.3/armv7e-m/libgcc.a(_arm_fixdfsi.o)
 *(.debug_frame)
 *fill*         0x000000000000117f        0x1 
 .debug_frame   0x0000000000001180       0x28 /usr/lib/gcc/arm-none-eabi/4.9.3/armv7e-m/libgcc.a(_aeabi_uldivmod.o)
 .debug_frame   0x00000000000011a8       0x2c /usr/lib/gcc/arm-none-eabi/4.9.3/armv7e-m/libgcc.a(_fixunssfdi.o)
 .debug_frame   0x00000000000011d4       0x50 /usr/lib/gcc/arm-none-eabi/4.9.3/armv7e-m/libgcc.a(bpabi.o)
 .debug_frame   0x0000000000001224       0x34 /usr/lib/gcc/arm-none-eabi/4.9.3/armv7e-m/libgcc.a(_divdi3.o)
 .debug_frame   0x0000000000001258       0x30 /usr/lib/gcc/arm-none-eabi/4.9.3/armv7e-m/libgcc.a(_udivdi3.o)
 .debug_frame   0x0000000000001288       0x28 /usr/lib/gcc/arm-none-eabi/4.9.3/../../../arm-none-eabi/lib/armv7e-m/libc.a(lib_a-abort.o)
 .debug_frame   0x00000000000012b0       0x20 /usr/lib/gcc/arm-none-eabi/4.9.3/../../../arm-none-eabi/lib/armv7e-m/libc.a(lib_a-atof.o)
 .debug_frame   0x00000000000012d0       0x30 /usr/lib/gcc/arm-none-eabi/4.9.3/../../../arm-none-eabi/lib/armv7e-m/libc.a(lib_a-atoi.o)
 .debug_frame   0x0000000000001300       0x6c /usr/lib/gcc/arm-none-eabi/4.9.3/../../../arm-none-eabi/lib/armv7e-m/libc.a(lib_a-fflush.o)
 .debug_frame   0x000000000000136c      0x124 /usr/lib/gcc/arm-none-eabi/4.9.3/../../../arm-none-eabi/lib/armv7e-m/libc.a(lib_a-findfp.o)
 .debug_frame   0x0000000000001490       0x74 /usr/lib/gcc/arm-none-eabi/4.9.3/../../../arm-none-eabi/lib/armv7e-m/libc.a(lib_a-freer.o)
 .debug_frame   0x0000000000001504       0x54 /usr/lib/gcc/arm-none-eabi/4.9.3/../../../arm-none-eabi/lib/armv7e-m/libc.a(lib_a-fwalk.o)
 .debug_frame   0x0000000000001558       0x58 /usr/lib/gcc/arm-none-eabi/4.9.3/../../../arm-none-eabi/lib/armv7e-m/libc.a(lib_a-mallocr.o)
 .debug_frame   0x00000000000015b0       0x34 /usr/lib/gcc/arm-none-eabi/4.9.3/../../../arm-none-eabi/lib/armv7e-m/libc.a(lib_a-memset.o)
 .debug_frame   0x00000000000015e4       0x30 /usr/lib/gcc/arm-none-eabi/4.9.3/../../../arm-none-eabi/lib/armv7e-m/libc.a(lib_a-mlock.o)
 .debug_frame   0x0000000000001614       0x74 /usr/lib/gcc/arm-none-eabi/4.9.3/../../../arm-none-eabi/lib/armv7e-m/libc.a(lib_a-printf.o)
 .debug_frame   0x0000000000001688       0x48 /usr/lib/gcc/arm-none-eabi/4.9.3/../../../arm-none-eabi/lib/armv7e-m/libc.a(lib_a-puts.o)
 .debug_frame   0x00000000000016d0       0x58 /usr/lib/gcc/arm-none-eabi/4.9.3/../../../arm-none-eabi/lib/armv7e-m/libc.a(lib_a-reent.o)
 .debug_frame   0x0000000000001728       0x2c /usr/lib/gcc/arm-none-eabi/4.9.3/../../../arm-none-eabi/lib/armv7e-m/libc.a(lib_a-sbrkr.o)
 .debug_frame   0x0000000000001754       0xe4 /usr/lib/gcc/arm-none-eabi/4.9.3/../../../arm-none-eabi/lib/armv7e-m/libc.a(lib_a-signal.o)
 .debug_frame   0x0000000000001838       0x3c /usr/lib/gcc/arm-none-eabi/4.9.3/../../../arm-none-eabi/lib/armv7e-m/libc.a(lib_a-signalr.o)
 .debug_frame   0x0000000000001874       0x88 /usr/lib/gcc/arm-none-eabi/4.9.3/../../../arm-none-eabi/lib/armv7e-m/libc.a(lib_a-stdio.o)
 .debug_frame   0x00000000000018fc       0x20 /usr/lib/gcc/arm-none-eabi/4.9.3/../../../arm-none-eabi/lib/armv7e-m/libc.a(lib_a-strlen.o)
 .debug_frame   0x000000000000191c       0x54 /usr/lib/gcc/arm-none-eabi/4.9.3/../../../arm-none-eabi/lib/armv7e-m/libc.a(lib_a-strncmp.o)
 .debug_frame   0x0000000000001970       0x34 /usr/lib/gcc/arm-none-eabi/4.9.3/../../../arm-none-eabi/lib/armv7e-m/libc.a(lib_a-strncpy.o)
 .debug_frame   0x00000000000019a4       0x94 /usr/lib/gcc/arm-none-eabi/4.9.3/../../../arm-none-eabi/lib/armv7e-m/libc.a(lib_a-strtod.o)
 .debug_frame   0x0000000000001a38       0x54 /usr/lib/gcc/arm-none-eabi/4.9.3/../../../arm-none-eabi/lib/armv7e-m/libc.a(lib_a-strtol.o)
 .debug_frame   0x0000000000001a8c       0x2c /usr/lib/gcc/arm-none-eabi/4.9.3/../../../arm-none-eabi/lib/armv7e-m/libc.a(lib_a-syswrite.o)
 .debug_frame   0x0000000000001ab8       0x90 /usr/lib/gcc/arm-none-eabi/4.9.3/../../../arm-none-eabi/lib/armv7e-m/libc.a(lib_a-vfprintf.o)
 .debug_frame   0x0000000000001b48       0x2c /usr/lib/gcc/arm-none-eabi/4.9.3/../../../arm-none-eabi/lib/armv7e-m/libc.a(lib_a-writer.o)
 .debug_frame   0x0000000000001b74       0x2c /usr/lib/gcc/arm-none-eabi/4.9.3/../../../arm-none-eabi/lib/armv7e-m/libc.a(lib_a-wsetup.o)
 .debug_frame   0x0000000000001ba0       0x2c /usr/lib/gcc/arm-none-eabi/4.9.3/../../../arm-none-eabi/lib/armv7e-m/libc.a(lib_a-closer.o)
 .debug_frame   0x0000000000001bcc       0x88 /usr/lib/gcc/arm-none-eabi/4.9.3/../../../arm-none-eabi/lib/armv7e-m/libc.a(lib_a-dtoa.o)
 .debug_frame   0x0000000000001c54       0x44 /usr/lib/gcc/arm-none-eabi/4.9.3/../../../arm-none-eabi/lib/armv7e-m/libc.a(lib_a-fclose.o)
 .debug_frame   0x0000000000001c98       0x68 /usr/lib/gcc/arm-none-eabi/4.9.3/../../../arm-none-eabi/lib/armv7e-m/libc.a(lib_a-fvwrite.o)
 .debug_frame   0x0000000000001d00       0x6c /usr/lib/gcc/arm-none-eabi/4.9.3/../../../arm-none-eabi/lib/armv7e-m/libc.a(lib_a-gdtoa-gethex.o)
 .debug_frame   0x0000000000001d6c       0x4c /usr/lib/gcc/arm-none-eabi/4.9.3/../../../arm-none-eabi/lib/armv7e-m/libc.a(lib_a-gdtoa-hexnan.o)
 .debug_frame   0x0000000000001db8       0x9c /usr/lib/gcc/arm-none-eabi/4.9.3/../../../arm-none-eabi/lib/armv7e-m/libc.a(lib_a-locale.o)
 .debug_frame   0x0000000000001e54       0x2c /usr/lib/gcc/arm-none-eabi/4.9.3/../../../arm-none-eabi/lib/armv7e-m/libc.a(lib_a-lseekr.o)
 .debug_frame   0x0000000000001e80       0x48 /usr/lib/gcc/arm-none-eabi/4.9.3/../../../arm-none-eabi/lib/armv7e-m/libc.a(lib_a-makebuf.o)
 .debug_frame   0x0000000000001ec8       0x3c /usr/lib/gcc/arm-none-eabi/4.9.3/../../../arm-none-eabi/lib/armv7e-m/libc.a(lib_a-memchr.o)
 .debug_frame   0x0000000000001f04       0x30 /usr/lib/gcc/arm-none-eabi/4.9.3/../../../arm-none-eabi/lib/armv7e-m/libc.a(lib_a-memmove.o)
 .debug_frame   0x0000000000001f34      0x268 /usr/lib/gcc/arm-none-eabi/4.9.3/../../../arm-none-eabi/lib/armv7e-m/libc.a(lib_a-mprec.o)
 .debug_frame   0x000000000000219c       0x2c /usr/lib/gcc/arm-none-eabi/4.9.3/../../../arm-none-eabi/lib/armv7e-m/libc.a(lib_a-readr.o)
 .debug_frame   0x00000000000021c8       0x60 /usr/lib/gcc/arm-none-eabi/4.9.3/../../../arm-none-eabi/lib/armv7e-m/libc.a(lib_a-reallocr.o)
 .debug_frame   0x0000000000002228       0x34 /usr/lib/gcc/arm-none-eabi/4.9.3/../../../arm-none-eabi/lib/armv7e-m/libc.a(lib_a-s_fpclassify.o)
 .debug_frame   0x000000000000225c       0x20 /usr/lib/gcc/arm-none-eabi/4.9.3/../../../arm-none-eabi/lib/armv7e-m/libc.a(lib_a-sf_nan.o)
 .debug_frame   0x000000000000227c       0xd8 /usr/lib/gcc/arm-none-eabi/4.9.3/../../../arm-none-eabi/lib/armv7e-m/libc.a(lib_a-vfiprintf.o)
 .debug_frame   0x0000000000002354       0x28 /usr/lib/gcc/arm-none-eabi/4.9.3/../../../arm-none-eabi/lib/armv7e-m/libc.a(lib_a-callocr.o)
 .debug_frame   0x000000000000237c       0x84 /usr/lib/gcc/arm-none-eabi/4.9.3/../../../arm-none-eabi/lib/armv7e-m/libc.a(lib_a-fputwc.o)
 .debug_frame   0x0000000000002400       0x2c /usr/lib/gcc/arm-none-eabi/4.9.3/../../../arm-none-eabi/lib/armv7e-m/libc.a(lib_a-fstatr.o)
 .debug_frame   0x000000000000242c       0x2c /usr/lib/gcc/arm-none-eabi/4.9.3/../../../arm-none-eabi/lib/armv7e-m/libc.a(lib_a-isattyr.o)
 .debug_frame   0x0000000000002458       0x3c /usr/lib/gcc/arm-none-eabi/4.9.3/../../../arm-none-eabi/lib/armv7e-m/libc.a(lib_a-wbuf.o)
 .debug_frame   0x0000000000002494       0x60 /usr/lib/gcc/arm-none-eabi/4.9.3/../../../arm-none-eabi/lib/armv7e-m/libc.a(lib_a-wcrtomb.o)
 .debug_frame   0x00000000000024f4       0x48 /usr/lib/gcc/arm-none-eabi/4.9.3/../../../arm-none-eabi/lib/armv7e-m/libc.a(lib_a-wctomb_r.o)
OUTPUT(build/stm32.elf elf32-littlearm)

.debug_line     0x0000000000000000     0x7cf0
 .debug_line    0x0000000000000000      0x176 /usr/lib/gcc/arm-none-eabi/4.9.3/armv7e-m/libgcc.a(_arm_addsubdf3.o)
 .debug_line    0x0000000000000176       0x8b /usr/lib/gcc/arm-none-eabi/4.9.3/armv7e-m/libgcc.a(_arm_truncdfsf2.o)
 .debug_line    0x0000000000000201      0x117 /usr/lib/gcc/arm-none-eabi/4.9.3/armv7e-m/libgcc.a(_arm_addsubsf3.o)
 .debug_line    0x0000000000000318       0x62 /usr/lib/gcc/arm-none-eabi/4.9.3/armv7e-m/libgcc.a(_aeabi_uldivmod.o)
 .debug_line    0x000000000000037a       0x67 /usr/lib/gcc/arm-none-eabi/4.9.3/armv7e-m/libgcc.a(_fixunssfdi.o)
 .debug_line    0x00000000000003e1       0x62 /usr/lib/gcc/arm-none-eabi/4.9.3/armv7e-m/libgcc.a(bpabi.o)
 .debug_line    0x0000000000000443       0x5e /usr/lib/gcc/arm-none-eabi/4.9.3/armv7e-m/libgcc.a(_dvmd_tls.o)
 .debug_line    0x00000000000004a1      0x19a /usr/lib/gcc/arm-none-eabi/4.9.3/armv7e-m/libgcc.a(_arm_muldivdf3.o)
 .debug_line    0x000000000000063b       0x73 /usr/lib/gcc/arm-none-eabi/4.9.3/armv7e-m/libgcc.a(_arm_fixunsdfsi.o)
 .debug_line    0x00000000000006ae       0xdf /usr/lib/gcc/arm-none-eabi/4.9.3/armv7e-m/libgcc.a(_divdi3.o)
 .debug_line    0x000000000000078d       0xd1 /usr/lib/gcc/arm-none-eabi/4.9.3/armv7e-m/libgcc.a(_udivdi3.o)
 .debug_line    0x000000000000085e      0x11a /usr/lib/gcc/arm-none-eabi/4.9.3/../../../arm-none-eabi/lib/armv7e-m/libc.a(lib_a-abort.o)
 .debug_line    0x0000000000000978       0xb3 /usr/lib/gcc/arm-none-eabi/4.9.3/../../../arm-none-eabi/lib/armv7e-m/libc.a(lib_a-atof.o)
 .debug_line    0x0000000000000a2b      0x168 /usr/lib/gcc/arm-none-eabi/4.9.3/../../../arm-none-eabi/lib/armv7e-m/libc.a(lib_a-atoi.o)
 .debug_line    0x0000000000000b93      0x258 /usr/lib/gcc/arm-none-eabi/4.9.3/../../../arm-none-eabi/lib/armv7e-m/libc.a(lib_a-fflush.o)
 .debug_line    0x0000000000000deb      0x31c /usr/lib/gcc/arm-none-eabi/4.9.3/../../../arm-none-eabi/lib/armv7e-m/libc.a(lib_a-findfp.o)
 .debug_line    0x0000000000001107      0x26e /usr/lib/gcc/arm-none-eabi/4.9.3/../../../arm-none-eabi/lib/armv7e-m/libc.a(lib_a-freer.o)
 .debug_line    0x0000000000001375      0x1b7 /usr/lib/gcc/arm-none-eabi/4.9.3/../../../arm-none-eabi/lib/armv7e-m/libc.a(lib_a-fwalk.o)
 .debug_line    0x000000000000152c       0xf1 /usr/lib/gcc/arm-none-eabi/4.9.3/../../../arm-none-eabi/lib/armv7e-m/libc.a(lib_a-impure.o)
 .debug_line    0x000000000000161d      0x38b /usr/lib/gcc/arm-none-eabi/4.9.3/../../../arm-none-eabi/lib/armv7e-m/libc.a(lib_a-mallocr.o)
 .debug_line    0x00000000000019a8      0x119 /usr/lib/gcc/arm-none-eabi/4.9.3/../../../arm-none-eabi/lib/armv7e-m/libc.a(lib_a-memset.o)
 .debug_line    0x0000000000001ac1      0x10f /usr/lib/gcc/arm-none-eabi/4.9.3/../../../arm-none-eabi/lib/armv7e-m/libc.a(lib_a-mlock.o)
 .debug_line    0x0000000000001bd0      0x18f /usr/lib/gcc/arm-none-eabi/4.9.3/../../../arm-none-eabi/lib/armv7e-m/libc.a(lib_a-printf.o)
 .debug_line    0x0000000000001d5f      0x1b6 /usr/lib/gcc/arm-none-eabi/4.9.3/../../../arm-none-eabi/lib/armv7e-m/libc.a(lib_a-puts.o)
 .debug_line    0x0000000000001f15      0x19a /usr/lib/gcc/arm-none-eabi/4.9.3/../../../arm-none-eabi/lib/armv7e-m/libc.a(lib_a-reent.o)
 .debug_line    0x00000000000020af      0x161 /usr/lib/gcc/arm-none-eabi/4.9.3/../../../arm-none-eabi/lib/armv7e-m/libc.a(lib_a-sbrkr.o)
 .debug_line    0x0000000000002210      0x258 /usr/lib/gcc/arm-none-eabi/4.9.3/../../../arm-none-eabi/lib/armv7e-m/libc.a(lib_a-signal.o)
 .debug_line    0x0000000000002468      0x174 /usr/lib/gcc/arm-none-eabi/4.9.3/../../../arm-none-eabi/lib/armv7e-m/libc.a(lib_a-signalr.o)
 .debug_line    0x00000000000025dc      0x1d3 /usr/lib/gcc/arm-none-eabi/4.9.3/../../../arm-none-eabi/lib/armv7e-m/libc.a(lib_a-stdio.o)
 .debug_line    0x00000000000027af       0xf2 /usr/lib/gcc/arm-none-eabi/4.9.3/../../../arm-none-eabi/lib/armv7e-m/libc.a(lib_a-strlen.o)
 .debug_line    0x00000000000028a1      0x14c /usr/lib/gcc/arm-none-eabi/4.9.3/../../../arm-none-eabi/lib/armv7e-m/libc.a(lib_a-strncmp.o)
 .debug_line    0x00000000000029ed      0x114 /usr/lib/gcc/arm-none-eabi/4.9.3/../../../arm-none-eabi/lib/armv7e-m/libc.a(lib_a-strncpy.o)
 .debug_line    0x0000000000002b01      0x649 /usr/lib/gcc/arm-none-eabi/4.9.3/../../../arm-none-eabi/lib/armv7e-m/libc.a(lib_a-strtod.o)
 .debug_line    0x000000000000314a      0x1e5 /usr/lib/gcc/arm-none-eabi/4.9.3/../../../arm-none-eabi/lib/armv7e-m/libc.a(lib_a-strtol.o)
 .debug_line    0x000000000000332f      0x16b /usr/lib/gcc/arm-none-eabi/4.9.3/../../../arm-none-eabi/lib/armv7e-m/libc.a(lib_a-syswrite.o)
 .debug_line    0x000000000000349a      0x986 /usr/lib/gcc/arm-none-eabi/4.9.3/../../../arm-none-eabi/lib/armv7e-m/libc.a(lib_a-vfprintf.o)
 .debug_line    0x0000000000003e20      0x163 /usr/lib/gcc/arm-none-eabi/4.9.3/../../../arm-none-eabi/lib/armv7e-m/libc.a(lib_a-writer.o)
 .debug_line    0x0000000000003f83      0x1bd /usr/lib/gcc/arm-none-eabi/4.9.3/../../../arm-none-eabi/lib/armv7e-m/libc.a(lib_a-wsetup.o)
 .debug_line    0x0000000000004140      0x162 /usr/lib/gcc/arm-none-eabi/4.9.3/../../../arm-none-eabi/lib/armv7e-m/libc.a(lib_a-closer.o)
 .debug_line    0x00000000000042a2       0x72 /usr/lib/gcc/arm-none-eabi/4.9.3/../../../arm-none-eabi/lib/armv7e-m/libc.a(lib_a-ctype_.o)
 .debug_line    0x0000000000004314      0x6cd /usr/lib/gcc/arm-none-eabi/4.9.3/../../../arm-none-eabi/lib/armv7e-m/libc.a(lib_a-dtoa.o)
 .debug_line    0x00000000000049e1      0x1b0 /usr/lib/gcc/arm-none-eabi/4.9.3/../../../arm-none-eabi/lib/armv7e-m/libc.a(lib_a-fclose.o)
 .debug_line    0x0000000000004b91      0x2e8 /usr/lib/gcc/arm-none-eabi/4.9.3/../../../arm-none-eabi/lib/armv7e-m/libc.a(lib_a-fvwrite.o)
 .debug_line    0x0000000000004e79      0x374 /usr/lib/gcc/arm-none-eabi/4.9.3/../../../arm-none-eabi/lib/armv7e-m/libc.a(lib_a-gdtoa-gethex.o)
 .debug_line    0x00000000000051ed      0x157 /usr/lib/gcc/arm-none-eabi/4.9.3/../../../arm-none-eabi/lib/armv7e-m/libc.a(lib_a-gdtoa-hexnan.o)
 .debug_line    0x0000000000005344      0x203 /usr/lib/gcc/arm-none-eabi/4.9.3/../../../arm-none-eabi/lib/armv7e-m/libc.a(lib_a-locale.o)
 .debug_line    0x0000000000005547      0x163 /usr/lib/gcc/arm-none-eabi/4.9.3/../../../arm-none-eabi/lib/armv7e-m/libc.a(lib_a-lseekr.o)
 .debug_line    0x00000000000056aa      0x1e0 /usr/lib/gcc/arm-none-eabi/4.9.3/../../../arm-none-eabi/lib/armv7e-m/libc.a(lib_a-makebuf.o)
 .debug_line    0x000000000000588a      0x11d /usr/lib/gcc/arm-none-eabi/4.9.3/../../../arm-none-eabi/lib/armv7e-m/libc.a(lib_a-memchr.o)
 .debug_line    0x00000000000059a7       0xb8 /usr/lib/gcc/arm-none-eabi/4.9.3/../../../arm-none-eabi/lib/armv7e-m/libc.a(lib_a-memcpy.o)
 .debug_line    0x0000000000005a5f      0x11f /usr/lib/gcc/arm-none-eabi/4.9.3/../../../arm-none-eabi/lib/armv7e-m/libc.a(lib_a-memmove.o)
 .debug_line    0x0000000000005b7e      0x6bd /usr/lib/gcc/arm-none-eabi/4.9.3/../../../arm-none-eabi/lib/armv7e-m/libc.a(lib_a-mprec.o)
 .debug_line    0x000000000000623b      0x162 /usr/lib/gcc/arm-none-eabi/4.9.3/../../../arm-none-eabi/lib/armv7e-m/libc.a(lib_a-readr.o)
 .debug_line    0x000000000000639d      0x29a /usr/lib/gcc/arm-none-eabi/4.9.3/../../../arm-none-eabi/lib/armv7e-m/libc.a(lib_a-reallocr.o)
 .debug_line    0x0000000000006637      0x149 /usr/lib/gcc/arm-none-eabi/4.9.3/../../../arm-none-eabi/lib/armv7e-m/libc.a(lib_a-s_fpclassify.o)
 .debug_line    0x0000000000006780       0xb2 /usr/lib/gcc/arm-none-eabi/4.9.3/../../../arm-none-eabi/lib/armv7e-m/libc.a(lib_a-sf_nan.o)
 .debug_line    0x0000000000006832      0x131 /usr/lib/gcc/arm-none-eabi/4.9.3/../../../arm-none-eabi/lib/armv7e-m/libc.a(lib_a-strcmp.o)
 .debug_line    0x0000000000006963      0x74e /usr/lib/gcc/arm-none-eabi/4.9.3/../../../arm-none-eabi/lib/armv7e-m/libc.a(lib_a-vfiprintf.o)
 .debug_line    0x00000000000070b1      0x131 /usr/lib/gcc/arm-none-eabi/4.9.3/../../../arm-none-eabi/lib/armv7e-m/libc.a(lib_a-callocr.o)
 .debug_line    0x00000000000071e2      0x200 /usr/lib/gcc/arm-none-eabi/4.9.3/../../../arm-none-eabi/lib/armv7e-m/libc.a(lib_a-fputwc.o)
 .debug_line    0x00000000000073e2      0x177 /usr/lib/gcc/arm-none-eabi/4.9.3/../../../arm-none-eabi/lib/armv7e-m/libc.a(lib_a-fstatr.o)
 .debug_line    0x0000000000007559      0x163 /usr/lib/gcc/arm-none-eabi/4.9.3/../../../arm-none-eabi/lib/armv7e-m/libc.a(lib_a-isattyr.o)
 .debug_line    0x00000000000076bc      0x1e5 /usr/lib/gcc/arm-none-eabi/4.9.3/../../../arm-none-eabi/lib/armv7e-m/libc.a(lib_a-wbuf.o)
 .debug_line    0x00000000000078a1      0x190 /usr/lib/gcc/arm-none-eabi/4.9.3/../../../arm-none-eabi/lib/armv7e-m/libc.a(lib_a-wcrtomb.o)
 .debug_line    0x0000000000007a31      0x191 /usr/lib/gcc/arm-none-eabi/4.9.3/../../../arm-none-eabi/lib/armv7e-m/libc.a(lib_a-wctomb_r.o)
 .debug_line    0x0000000000007bc2       0xb7 /usr/lib/gcc/arm-none-eabi/4.9.3/armv7e-m/libgcc.a(_arm_cmpdf2.o)
 .debug_line    0x0000000000007c79       0x77 /usr/lib/gcc/arm-none-eabi/4.9.3/armv7e-m/libgcc.a(_arm_fixdfsi.o)

.debug_info     0x0000000000000000    0x200c4
 .debug_info    0x0000000000000000       0xbb /usr/lib/gcc/arm-none-eabi/4.9.3/armv7e-m/libgcc.a(_arm_addsubdf3.o)
 .debug_info    0x00000000000000bb       0xbb /usr/lib/gcc/arm-none-eabi/4.9.3/armv7e-m/libgcc.a(_arm_truncdfsf2.o)
 .debug_info    0x0000000000000176       0xbb /usr/lib/gcc/arm-none-eabi/4.9.3/armv7e-m/libgcc.a(_arm_addsubsf3.o)
 .debug_info    0x0000000000000231       0xb6 /usr/lib/gcc/arm-none-eabi/4.9.3/armv7e-m/libgcc.a(_aeabi_uldivmod.o)
 .debug_info    0x00000000000002e7      0x11c /usr/lib/gcc/arm-none-eabi/4.9.3/armv7e-m/libgcc.a(_fixunssfdi.o)
 .debug_info    0x0000000000000403      0x164 /usr/lib/gcc/arm-none-eabi/4.9.3/armv7e-m/libgcc.a(bpabi.o)
 .debug_info    0x0000000000000567       0xba /usr/lib/gcc/arm-none-eabi/4.9.3/armv7e-m/libgcc.a(_dvmd_tls.o)
 .debug_info    0x0000000000000621       0xbb /usr/lib/gcc/arm-none-eabi/4.9.3/armv7e-m/libgcc.a(_arm_muldivdf3.o)
 .debug_info    0x00000000000006dc       0xbb /usr/lib/gcc/arm-none-eabi/4.9.3/armv7e-m/libgcc.a(_arm_fixunsdfsi.o)
 .debug_info    0x0000000000000797      0x5bc /usr/lib/gcc/arm-none-eabi/4.9.3/armv7e-m/libgcc.a(_divdi3.o)
 .debug_info    0x0000000000000d53      0x57c /usr/lib/gcc/arm-none-eabi/4.9.3/armv7e-m/libgcc.a(_udivdi3.o)
 .debug_info    0x00000000000012cf       0xd4 /usr/lib/gcc/arm-none-eabi/4.9.3/../../../arm-none-eabi/lib/armv7e-m/libc.a(lib_a-abort.o)
 .debug_info    0x00000000000013a3       0xef /usr/lib/gcc/arm-none-eabi/4.9.3/../../../arm-none-eabi/lib/armv7e-m/libc.a(lib_a-atof.o)
 .debug_info    0x0000000000001492      0x941 /usr/lib/gcc/arm-none-eabi/4.9.3/../../../arm-none-eabi/lib/armv7e-m/libc.a(lib_a-atoi.o)
 .debug_info    0x0000000000001dd3      0xab3 /usr/lib/gcc/arm-none-eabi/4.9.3/../../../arm-none-eabi/lib/armv7e-m/libc.a(lib_a-fflush.o)
 .debug_info    0x0000000000002886      0xdc0 /usr/lib/gcc/arm-none-eabi/4.9.3/../../../arm-none-eabi/lib/armv7e-m/libc.a(lib_a-findfp.o)
 .debug_info    0x0000000000003646      0xc1c /usr/lib/gcc/arm-none-eabi/4.9.3/../../../arm-none-eabi/lib/armv7e-m/libc.a(lib_a-freer.o)
 .debug_info    0x0000000000004262      0x99e /usr/lib/gcc/arm-none-eabi/4.9.3/../../../arm-none-eabi/lib/armv7e-m/libc.a(lib_a-fwalk.o)
 .debug_info    0x0000000000004c00      0x894 /usr/lib/gcc/arm-none-eabi/4.9.3/../../../arm-none-eabi/lib/armv7e-m/libc.a(lib_a-impure.o)
 .debug_info    0x0000000000005494      0xd8b /usr/lib/gcc/arm-none-eabi/4.9.3/../../../arm-none-eabi/lib/armv7e-m/libc.a(lib_a-mallocr.o)
 .debug_info    0x000000000000621f      0x117 /usr/lib/gcc/arm-none-eabi/4.9.3/../../../arm-none-eabi/lib/armv7e-m/libc.a(lib_a-memset.o)
 .debug_info    0x0000000000006336      0x8b4 /usr/lib/gcc/arm-none-eabi/4.9.3/../../../arm-none-eabi/lib/armv7e-m/libc.a(lib_a-mlock.o)
 .debug_info    0x0000000000006bea      0x9ab /usr/lib/gcc/arm-none-eabi/4.9.3/../../../arm-none-eabi/lib/armv7e-m/libc.a(lib_a-printf.o)
 .debug_info    0x0000000000007595      0xa4e /usr/lib/gcc/arm-none-eabi/4.9.3/../../../arm-none-eabi/lib/armv7e-m/libc.a(lib_a-puts.o)
 .debug_info    0x0000000000007fe3      0x9fb /usr/lib/gcc/arm-none-eabi/4.9.3/../../../arm-none-eabi/lib/armv7e-m/libc.a(lib_a-reent.o)
 .debug_info    0x00000000000089de      0x8f4 /usr/lib/gcc/arm-none-eabi/4.9.3/../../../arm-none-eabi/lib/armv7e-m/libc.a(lib_a-sbrkr.o)
 .debug_info    0x00000000000092d2      0xbad /usr/lib/gcc/arm-none-eabi/4.9.3/../../../arm-none-eabi/lib/armv7e-m/libc.a(lib_a-signal.o)
 .debug_info    0x0000000000009e7f      0x956 /usr/lib/gcc/arm-none-eabi/4.9.3/../../../arm-none-eabi/lib/armv7e-m/libc.a(lib_a-signalr.o)
 .debug_info    0x000000000000a7d5      0xb8a /usr/lib/gcc/arm-none-eabi/4.9.3/../../../arm-none-eabi/lib/armv7e-m/libc.a(lib_a-stdio.o)
 .debug_info    0x000000000000b35f       0xb5 /usr/lib/gcc/arm-none-eabi/4.9.3/../../../arm-none-eabi/lib/armv7e-m/libc.a(lib_a-strlen.o)
 .debug_info    0x000000000000b414       0xf5 /usr/lib/gcc/arm-none-eabi/4.9.3/../../../arm-none-eabi/lib/armv7e-m/libc.a(lib_a-strncmp.o)
 .debug_info    0x000000000000b509      0x128 /usr/lib/gcc/arm-none-eabi/4.9.3/../../../arm-none-eabi/lib/armv7e-m/libc.a(lib_a-strncpy.o)
 .debug_info    0x000000000000b631     0x180f /usr/lib/gcc/arm-none-eabi/4.9.3/../../../arm-none-eabi/lib/armv7e-m/libc.a(lib_a-strtod.o)
 .debug_info    0x000000000000ce40      0x9a7 /usr/lib/gcc/arm-none-eabi/4.9.3/../../../arm-none-eabi/lib/armv7e-m/libc.a(lib_a-strtol.o)
 .debug_info    0x000000000000d7e7      0x910 /usr/lib/gcc/arm-none-eabi/4.9.3/../../../arm-none-eabi/lib/armv7e-m/libc.a(lib_a-syswrite.o)
 .debug_info    0x000000000000e0f7     0x17f4 /usr/lib/gcc/arm-none-eabi/4.9.3/../../../arm-none-eabi/lib/armv7e-m/libc.a(lib_a-vfprintf.o)
 .debug_info    0x000000000000f8eb      0x929 /usr/lib/gcc/arm-none-eabi/4.9.3/../../../arm-none-eabi/lib/armv7e-m/libc.a(lib_a-writer.o)
 .debug_info    0x0000000000010214      0x93b /usr/lib/gcc/arm-none-eabi/4.9.3/../../../arm-none-eabi/lib/armv7e-m/libc.a(lib_a-wsetup.o)
 .debug_info    0x0000000000010b4f      0x8e0 /usr/lib/gcc/arm-none-eabi/4.9.3/../../../arm-none-eabi/lib/armv7e-m/libc.a(lib_a-closer.o)
 .debug_info    0x000000000001142f       0x6f /usr/lib/gcc/arm-none-eabi/4.9.3/../../../arm-none-eabi/lib/armv7e-m/libc.a(lib_a-ctype_.o)
 .debug_info    0x000000000001149e     0x1341 /usr/lib/gcc/arm-none-eabi/4.9.3/../../../arm-none-eabi/lib/armv7e-m/libc.a(lib_a-dtoa.o)
 .debug_info    0x00000000000127df      0xa28 /usr/lib/gcc/arm-none-eabi/4.9.3/../../../arm-none-eabi/lib/armv7e-m/libc.a(lib_a-fclose.o)
 .debug_info    0x0000000000013207      0xc63 /usr/lib/gcc/arm-none-eabi/4.9.3/../../../arm-none-eabi/lib/armv7e-m/libc.a(lib_a-fvwrite.o)
 .debug_info    0x0000000000013e6a     0x10c9 /usr/lib/gcc/arm-none-eabi/4.9.3/../../../arm-none-eabi/lib/armv7e-m/libc.a(lib_a-gdtoa-gethex.o)
 .debug_info    0x0000000000014f33      0x306 /usr/lib/gcc/arm-none-eabi/4.9.3/../../../arm-none-eabi/lib/armv7e-m/libc.a(lib_a-gdtoa-hexnan.o)
 .debug_info    0x0000000000015239      0xc24 /usr/lib/gcc/arm-none-eabi/4.9.3/../../../arm-none-eabi/lib/armv7e-m/libc.a(lib_a-locale.o)
 .debug_info    0x0000000000015e5d      0x90c /usr/lib/gcc/arm-none-eabi/4.9.3/../../../arm-none-eabi/lib/armv7e-m/libc.a(lib_a-lseekr.o)
 .debug_info    0x0000000000016769      0xae6 /usr/lib/gcc/arm-none-eabi/4.9.3/../../../arm-none-eabi/lib/armv7e-m/libc.a(lib_a-makebuf.o)
 .debug_info    0x000000000001724f      0x129 /usr/lib/gcc/arm-none-eabi/4.9.3/../../../arm-none-eabi/lib/armv7e-m/libc.a(lib_a-memchr.o)
 .debug_info    0x0000000000017378       0xce /usr/lib/gcc/arm-none-eabi/4.9.3/../../../arm-none-eabi/lib/armv7e-m/libc.a(lib_a-memcpy.o)
 .debug_info    0x0000000000017446      0x131 /usr/lib/gcc/arm-none-eabi/4.9.3/../../../arm-none-eabi/lib/armv7e-m/libc.a(lib_a-memmove.o)
 .debug_info    0x0000000000017577     0x167c /usr/lib/gcc/arm-none-eabi/4.9.3/../../../arm-none-eabi/lib/armv7e-m/libc.a(lib_a-mprec.o)
 .debug_info    0x0000000000018bf3      0x922 /usr/lib/gcc/arm-none-eabi/4.9.3/../../../arm-none-eabi/lib/armv7e-m/libc.a(lib_a-readr.o)
 .debug_info    0x0000000000019515      0xcbc /usr/lib/gcc/arm-none-eabi/4.9.3/../../../arm-none-eabi/lib/armv7e-m/libc.a(lib_a-reallocr.o)
 .debug_info    0x000000000001a1d1       0xd3 /usr/lib/gcc/arm-none-eabi/4.9.3/../../../arm-none-eabi/lib/armv7e-m/libc.a(lib_a-s_fpclassify.o)
 .debug_info    0x000000000001a2a4       0xce /usr/lib/gcc/arm-none-eabi/4.9.3/../../../arm-none-eabi/lib/armv7e-m/libc.a(lib_a-sf_nan.o)
 .debug_info    0x000000000001a372       0xcd /usr/lib/gcc/arm-none-eabi/4.9.3/../../../arm-none-eabi/lib/armv7e-m/libc.a(lib_a-strcmp.o)
 .debug_info    0x000000000001a43f     0x152f /usr/lib/gcc/arm-none-eabi/4.9.3/../../../arm-none-eabi/lib/armv7e-m/libc.a(lib_a-vfiprintf.o)
 .debug_info    0x000000000001b96e      0x9e0 /usr/lib/gcc/arm-none-eabi/4.9.3/../../../arm-none-eabi/lib/armv7e-m/libc.a(lib_a-callocr.o)
 .debug_info    0x000000000001c34e      0xacc /usr/lib/gcc/arm-none-eabi/4.9.3/../../../arm-none-eabi/lib/armv7e-m/libc.a(lib_a-fputwc.o)
 .debug_info    0x000000000001ce1a      0xa5e /usr/lib/gcc/arm-none-eabi/4.9.3/../../../arm-none-eabi/lib/armv7e-m/libc.a(lib_a-fstatr.o)
 .debug_info    0x000000000001d878      0x8e0 /usr/lib/gcc/arm-none-eabi/4.9.3/../../../arm-none-eabi/lib/armv7e-m/libc.a(lib_a-isattyr.o)
 .debug_info    0x000000000001e158      0x9cc /usr/lib/gcc/arm-none-eabi/4.9.3/../../../arm-none-eabi/lib/armv7e-m/libc.a(lib_a-wbuf.o)
 .debug_info    0x000000000001eb24      0xa75 /usr/lib/gcc/arm-none-eabi/4.9.3/../../../arm-none-eabi/lib/armv7e-m/libc.a(lib_a-wcrtomb.o)
 .debug_info    0x000000000001f599      0x9b5 /usr/lib/gcc/arm-none-eabi/4.9.3/../../../arm-none-eabi/lib/armv7e-m/libc.a(lib_a-wctomb_r.o)
 .debug_info    0x000000000001ff4e       0xbb /usr/lib/gcc/arm-none-eabi/4.9.3/armv7e-m/libgcc.a(_arm_cmpdf2.o)
 .debug_info    0x0000000000020009       0xbb /usr/lib/gcc/arm-none-eabi/4.9.3/armv7e-m/libgcc.a(_arm_fixdfsi.o)

.debug_abbrev   0x0000000000000000     0x6c26
 .debug_abbrev  0x0000000000000000       0x14 /usr/lib/gcc/arm-none-eabi/4.9.3/armv7e-m/libgcc.a(_arm_addsubdf3.o)
 .debug_abbrev  0x0000000000000014       0x14 /usr/lib/gcc/arm-none-eabi/4.9.3/armv7e-m/libgcc.a(_arm_truncdfsf2.o)
 .debug_abbrev  0x0000000000000028       0x14 /usr/lib/gcc/arm-none-eabi/4.9.3/armv7e-m/libgcc.a(_arm_addsubsf3.o)
 .debug_abbrev  0x000000000000003c       0x14 /usr/lib/gcc/arm-none-eabi/4.9.3/armv7e-m/libgcc.a(_aeabi_uldivmod.o)
 .debug_abbrev  0x0000000000000050       0x78 /usr/lib/gcc/arm-none-eabi/4.9.3/armv7e-m/libgcc.a(_fixunssfdi.o)
 .debug_abbrev  0x00000000000000c8       0xb7 /usr/lib/gcc/arm-none-eabi/4.9.3/armv7e-m/libgcc.a(bpabi.o)
 .debug_abbrev  0x000000000000017f       0x14 /usr/lib/gcc/arm-none-eabi/4.9.3/armv7e-m/libgcc.a(_dvmd_tls.o)
 .debug_abbrev  0x0000000000000193       0x14 /usr/lib/gcc/arm-none-eabi/4.9.3/armv7e-m/libgcc.a(_arm_muldivdf3.o)
 .debug_abbrev  0x00000000000001a7       0x14 /usr/lib/gcc/arm-none-eabi/4.9.3/armv7e-m/libgcc.a(_arm_fixunsdfsi.o)
 .debug_abbrev  0x00000000000001bb      0x169 /usr/lib/gcc/arm-none-eabi/4.9.3/armv7e-m/libgcc.a(_divdi3.o)
 .debug_abbrev  0x0000000000000324      0x154 /usr/lib/gcc/arm-none-eabi/4.9.3/armv7e-m/libgcc.a(_udivdi3.o)
 .debug_abbrev  0x0000000000000478       0x95 /usr/lib/gcc/arm-none-eabi/4.9.3/../../../arm-none-eabi/lib/armv7e-m/libc.a(lib_a-abort.o)
 .debug_abbrev  0x000000000000050d       0x9b /usr/lib/gcc/arm-none-eabi/4.9.3/../../../arm-none-eabi/lib/armv7e-m/libc.a(lib_a-atof.o)
 .debug_abbrev  0x00000000000005a8      0x1d1 /usr/lib/gcc/arm-none-eabi/4.9.3/../../../arm-none-eabi/lib/armv7e-m/libc.a(lib_a-atoi.o)
 .debug_abbrev  0x0000000000000779      0x2a1 /usr/lib/gcc/arm-none-eabi/4.9.3/../../../arm-none-eabi/lib/armv7e-m/libc.a(lib_a-fflush.o)
 .debug_abbrev  0x0000000000000a1a      0x36d /usr/lib/gcc/arm-none-eabi/4.9.3/../../../arm-none-eabi/lib/armv7e-m/libc.a(lib_a-findfp.o)
 .debug_abbrev  0x0000000000000d87      0x27b /usr/lib/gcc/arm-none-eabi/4.9.3/../../../arm-none-eabi/lib/armv7e-m/libc.a(lib_a-freer.o)
 .debug_abbrev  0x0000000000001002      0x1c2 /usr/lib/gcc/arm-none-eabi/4.9.3/../../../arm-none-eabi/lib/armv7e-m/libc.a(lib_a-fwalk.o)
 .debug_abbrev  0x00000000000011c4      0x180 /usr/lib/gcc/arm-none-eabi/4.9.3/../../../arm-none-eabi/lib/armv7e-m/libc.a(lib_a-impure.o)
 .debug_abbrev  0x0000000000001344      0x2ad /usr/lib/gcc/arm-none-eabi/4.9.3/../../../arm-none-eabi/lib/armv7e-m/libc.a(lib_a-mallocr.o)
 .debug_abbrev  0x00000000000015f1       0x9f /usr/lib/gcc/arm-none-eabi/4.9.3/../../../arm-none-eabi/lib/armv7e-m/libc.a(lib_a-memset.o)
 .debug_abbrev  0x0000000000001690      0x19a /usr/lib/gcc/arm-none-eabi/4.9.3/../../../arm-none-eabi/lib/armv7e-m/libc.a(lib_a-mlock.o)
 .debug_abbrev  0x000000000000182a      0x227 /usr/lib/gcc/arm-none-eabi/4.9.3/../../../arm-none-eabi/lib/armv7e-m/libc.a(lib_a-printf.o)
 .debug_abbrev  0x0000000000001a51      0x25e /usr/lib/gcc/arm-none-eabi/4.9.3/../../../arm-none-eabi/lib/armv7e-m/libc.a(lib_a-puts.o)
 .debug_abbrev  0x0000000000001caf      0x25c /usr/lib/gcc/arm-none-eabi/4.9.3/../../../arm-none-eabi/lib/armv7e-m/libc.a(lib_a-reent.o)
 .debug_abbrev  0x0000000000001f0b      0x1fd /usr/lib/gcc/arm-none-eabi/4.9.3/../../../arm-none-eabi/lib/armv7e-m/libc.a(lib_a-sbrkr.o)
 .debug_abbrev  0x0000000000002108      0x2d7 /usr/lib/gcc/arm-none-eabi/4.9.3/../../../arm-none-eabi/lib/armv7e-m/libc.a(lib_a-signal.o)
 .debug_abbrev  0x00000000000023df      0x20a /usr/lib/gcc/arm-none-eabi/4.9.3/../../../arm-none-eabi/lib/armv7e-m/libc.a(lib_a-signalr.o)
 .debug_abbrev  0x00000000000025e9      0x246 /usr/lib/gcc/arm-none-eabi/4.9.3/../../../arm-none-eabi/lib/armv7e-m/libc.a(lib_a-stdio.o)
 .debug_abbrev  0x000000000000282f       0x70 /usr/lib/gcc/arm-none-eabi/4.9.3/../../../arm-none-eabi/lib/armv7e-m/libc.a(lib_a-strlen.o)
 .debug_abbrev  0x000000000000289f       0x81 /usr/lib/gcc/arm-none-eabi/4.9.3/../../../arm-none-eabi/lib/armv7e-m/libc.a(lib_a-strncmp.o)
 .debug_abbrev  0x0000000000002920       0x9f /usr/lib/gcc/arm-none-eabi/4.9.3/../../../arm-none-eabi/lib/armv7e-m/libc.a(lib_a-strncpy.o)
 .debug_abbrev  0x00000000000029bf      0x40b /usr/lib/gcc/arm-none-eabi/4.9.3/../../../arm-none-eabi/lib/armv7e-m/libc.a(lib_a-strtod.o)
 .debug_abbrev  0x0000000000002dca      0x207 /usr/lib/gcc/arm-none-eabi/4.9.3/../../../arm-none-eabi/lib/armv7e-m/libc.a(lib_a-strtol.o)
 .debug_abbrev  0x0000000000002fd1      0x1d2 /usr/lib/gcc/arm-none-eabi/4.9.3/../../../arm-none-eabi/lib/armv7e-m/libc.a(lib_a-syswrite.o)
 .debug_abbrev  0x00000000000031a3      0x3e0 /usr/lib/gcc/arm-none-eabi/4.9.3/../../../arm-none-eabi/lib/armv7e-m/libc.a(lib_a-vfprintf.o)
 .debug_abbrev  0x0000000000003583      0x1f4 /usr/lib/gcc/arm-none-eabi/4.9.3/../../../arm-none-eabi/lib/armv7e-m/libc.a(lib_a-writer.o)
 .debug_abbrev  0x0000000000003777      0x20b /usr/lib/gcc/arm-none-eabi/4.9.3/../../../arm-none-eabi/lib/armv7e-m/libc.a(lib_a-wsetup.o)
 .debug_abbrev  0x0000000000003982      0x1ef /usr/lib/gcc/arm-none-eabi/4.9.3/../../../arm-none-eabi/lib/armv7e-m/libc.a(lib_a-closer.o)
 .debug_abbrev  0x0000000000003b71       0x4e /usr/lib/gcc/arm-none-eabi/4.9.3/../../../arm-none-eabi/lib/armv7e-m/libc.a(lib_a-ctype_.o)
 .debug_abbrev  0x0000000000003bbf      0x2bc /usr/lib/gcc/arm-none-eabi/4.9.3/../../../arm-none-eabi/lib/armv7e-m/libc.a(lib_a-dtoa.o)
 .debug_abbrev  0x0000000000003e7b      0x2aa /usr/lib/gcc/arm-none-eabi/4.9.3/../../../arm-none-eabi/lib/armv7e-m/libc.a(lib_a-fclose.o)
 .debug_abbrev  0x0000000000004125      0x24a /usr/lib/gcc/arm-none-eabi/4.9.3/../../../arm-none-eabi/lib/armv7e-m/libc.a(lib_a-fvwrite.o)
 .debug_abbrev  0x000000000000436f      0x32a /usr/lib/gcc/arm-none-eabi/4.9.3/../../../arm-none-eabi/lib/armv7e-m/libc.a(lib_a-gdtoa-gethex.o)
 .debug_abbrev  0x0000000000004699      0x177 /usr/lib/gcc/arm-none-eabi/4.9.3/../../../arm-none-eabi/lib/armv7e-m/libc.a(lib_a-gdtoa-hexnan.o)
 .debug_abbrev  0x0000000000004810      0x2ac /usr/lib/gcc/arm-none-eabi/4.9.3/../../../arm-none-eabi/lib/armv7e-m/libc.a(lib_a-locale.o)
 .debug_abbrev  0x0000000000004abc      0x1fe /usr/lib/gcc/arm-none-eabi/4.9.3/../../../arm-none-eabi/lib/armv7e-m/libc.a(lib_a-lseekr.o)
 .debug_abbrev  0x0000000000004cba      0x206 /usr/lib/gcc/arm-none-eabi/4.9.3/../../../arm-none-eabi/lib/armv7e-m/libc.a(lib_a-makebuf.o)
 .debug_abbrev  0x0000000000004ec0       0xba /usr/lib/gcc/arm-none-eabi/4.9.3/../../../arm-none-eabi/lib/armv7e-m/libc.a(lib_a-memchr.o)
 .debug_abbrev  0x0000000000004f7a       0x14 /usr/lib/gcc/arm-none-eabi/4.9.3/../../../arm-none-eabi/lib/armv7e-m/libc.a(lib_a-memcpy.o)
 .debug_abbrev  0x0000000000004f8e       0xab /usr/lib/gcc/arm-none-eabi/4.9.3/../../../arm-none-eabi/lib/armv7e-m/libc.a(lib_a-memmove.o)
 .debug_abbrev  0x0000000000005039      0x39d /usr/lib/gcc/arm-none-eabi/4.9.3/../../../arm-none-eabi/lib/armv7e-m/libc.a(lib_a-mprec.o)
 .debug_abbrev  0x00000000000053d6      0x1ef /usr/lib/gcc/arm-none-eabi/4.9.3/../../../arm-none-eabi/lib/armv7e-m/libc.a(lib_a-readr.o)
 .debug_abbrev  0x00000000000055c5      0x260 /usr/lib/gcc/arm-none-eabi/4.9.3/../../../arm-none-eabi/lib/armv7e-m/libc.a(lib_a-reallocr.o)
 .debug_abbrev  0x0000000000005825       0x6d /usr/lib/gcc/arm-none-eabi/4.9.3/../../../arm-none-eabi/lib/armv7e-m/libc.a(lib_a-s_fpclassify.o)
 .debug_abbrev  0x0000000000005892       0x72 /usr/lib/gcc/arm-none-eabi/4.9.3/../../../arm-none-eabi/lib/armv7e-m/libc.a(lib_a-sf_nan.o)
 .debug_abbrev  0x0000000000005904       0x14 /usr/lib/gcc/arm-none-eabi/4.9.3/../../../arm-none-eabi/lib/armv7e-m/libc.a(lib_a-strcmp.o)
 .debug_abbrev  0x0000000000005918      0x3c9 /usr/lib/gcc/arm-none-eabi/4.9.3/../../../arm-none-eabi/lib/armv7e-m/libc.a(lib_a-vfiprintf.o)
 .debug_abbrev  0x0000000000005ce1      0x213 /usr/lib/gcc/arm-none-eabi/4.9.3/../../../arm-none-eabi/lib/armv7e-m/libc.a(lib_a-callocr.o)
 .debug_abbrev  0x0000000000005ef4      0x28e /usr/lib/gcc/arm-none-eabi/4.9.3/../../../arm-none-eabi/lib/armv7e-m/libc.a(lib_a-fputwc.o)
 .debug_abbrev  0x0000000000006182      0x1fe /usr/lib/gcc/arm-none-eabi/4.9.3/../../../arm-none-eabi/lib/armv7e-m/libc.a(lib_a-fstatr.o)
 .debug_abbrev  0x0000000000006380      0x1ef /usr/lib/gcc/arm-none-eabi/4.9.3/../../../arm-none-eabi/lib/armv7e-m/libc.a(lib_a-isattyr.o)
 .debug_abbrev  0x000000000000656f      0x25b /usr/lib/gcc/arm-none-eabi/4.9.3/../../../arm-none-eabi/lib/armv7e-m/libc.a(lib_a-wbuf.o)
 .debug_abbrev  0x00000000000067ca      0x222 /usr/lib/gcc/arm-none-eabi/4.9.3/../../../arm-none-eabi/lib/armv7e-m/libc.a(lib_a-wcrtomb.o)
 .debug_abbrev  0x00000000000069ec      0x212 /usr/lib/gcc/arm-none-eabi/4.9.3/../../../arm-none-eabi/lib/armv7e-m/libc.a(lib_a-wctomb_r.o)
 .debug_abbrev  0x0000000000006bfe       0x14 /usr/lib/gcc/arm-none-eabi/4.9.3/armv7e-m/libgcc.a(_arm_cmpdf2.o)
 .debug_abbrev  0x0000000000006c12       0x14 /usr/lib/gcc/arm-none-eabi/4.9.3/armv7e-m/libgcc.a(_arm_fixdfsi.o)

.debug_aranges  0x0000000000000000      0xab8
 .debug_aranges
                0x0000000000000000       0x20 /usr/lib/gcc/arm-none-eabi/4.9.3/armv7e-m/libgcc.a(_arm_addsubdf3.o)
 .debug_aranges
                0x0000000000000020       0x20 /usr/lib/gcc/arm-none-eabi/4.9.3/armv7e-m/libgcc.a(_arm_truncdfsf2.o)
 .debug_aranges
                0x0000000000000040       0x20 /usr/lib/gcc/arm-none-eabi/4.9.3/armv7e-m/libgcc.a(_arm_addsubsf3.o)
 .debug_aranges
                0x0000000000000060       0x20 /usr/lib/gcc/arm-none-eabi/4.9.3/armv7e-m/libgcc.a(_aeabi_uldivmod.o)
 .debug_aranges
                0x0000000000000080       0x20 /usr/lib/gcc/arm-none-eabi/4.9.3/armv7e-m/libgcc.a(_fixunssfdi.o)
 .debug_aranges
                0x00000000000000a0       0x20 /usr/lib/gcc/arm-none-eabi/4.9.3/armv7e-m/libgcc.a(bpabi.o)
 .debug_aranges
                0x00000000000000c0       0x20 /usr/lib/gcc/arm-none-eabi/4.9.3/armv7e-m/libgcc.a(_dvmd_tls.o)
 .debug_aranges
                0x00000000000000e0       0x20 /usr/lib/gcc/arm-none-eabi/4.9.3/armv7e-m/libgcc.a(_arm_muldivdf3.o)
 .debug_aranges
                0x0000000000000100       0x20 /usr/lib/gcc/arm-none-eabi/4.9.3/armv7e-m/libgcc.a(_arm_fixunsdfsi.o)
 .debug_aranges
                0x0000000000000120       0x20 /usr/lib/gcc/arm-none-eabi/4.9.3/armv7e-m/libgcc.a(_divdi3.o)
 .debug_aranges
                0x0000000000000140       0x20 /usr/lib/gcc/arm-none-eabi/4.9.3/armv7e-m/libgcc.a(_udivdi3.o)
 .debug_aranges
                0x0000000000000160       0x20 /usr/lib/gcc/arm-none-eabi/4.9.3/../../../arm-none-eabi/lib/armv7e-m/libc.a(lib_a-abort.o)
 .debug_aranges
                0x0000000000000180       0x20 /usr/lib/gcc/arm-none-eabi/4.9.3/../../../arm-none-eabi/lib/armv7e-m/libc.a(lib_a-atof.o)
 .debug_aranges
                0x00000000000001a0       0x28 /usr/lib/gcc/arm-none-eabi/4.9.3/../../../arm-none-eabi/lib/armv7e-m/libc.a(lib_a-atoi.o)
 .debug_aranges
                0x00000000000001c8       0x30 /usr/lib/gcc/arm-none-eabi/4.9.3/../../../arm-none-eabi/lib/armv7e-m/libc.a(lib_a-fflush.o)
 .debug_aranges
                0x00000000000001f8       0x88 /usr/lib/gcc/arm-none-eabi/4.9.3/../../../arm-none-eabi/lib/armv7e-m/libc.a(lib_a-findfp.o)
 .debug_aranges
                0x0000000000000280       0x28 /usr/lib/gcc/arm-none-eabi/4.9.3/../../../arm-none-eabi/lib/armv7e-m/libc.a(lib_a-freer.o)
 .debug_aranges
                0x00000000000002a8       0x28 /usr/lib/gcc/arm-none-eabi/4.9.3/../../../arm-none-eabi/lib/armv7e-m/libc.a(lib_a-fwalk.o)
 .debug_aranges
                0x00000000000002d0       0x18 /usr/lib/gcc/arm-none-eabi/4.9.3/../../../arm-none-eabi/lib/armv7e-m/libc.a(lib_a-impure.o)
 .debug_aranges
                0x00000000000002e8       0x20 /usr/lib/gcc/arm-none-eabi/4.9.3/../../../arm-none-eabi/lib/armv7e-m/libc.a(lib_a-mallocr.o)
 .debug_aranges
                0x0000000000000308       0x20 /usr/lib/gcc/arm-none-eabi/4.9.3/../../../arm-none-eabi/lib/armv7e-m/libc.a(lib_a-memset.o)
 .debug_aranges
                0x0000000000000328       0x28 /usr/lib/gcc/arm-none-eabi/4.9.3/../../../arm-none-eabi/lib/armv7e-m/libc.a(lib_a-mlock.o)
 .debug_aranges
                0x0000000000000350       0x28 /usr/lib/gcc/arm-none-eabi/4.9.3/../../../arm-none-eabi/lib/armv7e-m/libc.a(lib_a-printf.o)
 .debug_aranges
                0x0000000000000378       0x28 /usr/lib/gcc/arm-none-eabi/4.9.3/../../../arm-none-eabi/lib/armv7e-m/libc.a(lib_a-puts.o)
 .debug_aranges
                0x00000000000003a0       0x28 /usr/lib/gcc/arm-none-eabi/4.9.3/../../../arm-none-eabi/lib/armv7e-m/libc.a(lib_a-reent.o)
 .debug_aranges
                0x00000000000003c8       0x20 /usr/lib/gcc/arm-none-eabi/4.9.3/../../../arm-none-eabi/lib/armv7e-m/libc.a(lib_a-sbrkr.o)
 .debug_aranges
                0x00000000000003e8       0x58 /usr/lib/gcc/arm-none-eabi/4.9.3/../../../arm-none-eabi/lib/armv7e-m/libc.a(lib_a-signal.o)
 .debug_aranges
                0x0000000000000440       0x28 /usr/lib/gcc/arm-none-eabi/4.9.3/../../../arm-none-eabi/lib/armv7e-m/libc.a(lib_a-signalr.o)
 .debug_aranges
                0x0000000000000468       0x40 /usr/lib/gcc/arm-none-eabi/4.9.3/../../../arm-none-eabi/lib/armv7e-m/libc.a(lib_a-stdio.o)
 .debug_aranges
                0x00000000000004a8       0x20 /usr/lib/gcc/arm-none-eabi/4.9.3/../../../arm-none-eabi/lib/armv7e-m/libc.a(lib_a-strlen.o)
 .debug_aranges
                0x00000000000004c8       0x20 /usr/lib/gcc/arm-none-eabi/4.9.3/../../../arm-none-eabi/lib/armv7e-m/libc.a(lib_a-strncmp.o)
 .debug_aranges
                0x00000000000004e8       0x20 /usr/lib/gcc/arm-none-eabi/4.9.3/../../../arm-none-eabi/lib/armv7e-m/libc.a(lib_a-strncpy.o)
 .debug_aranges
                0x0000000000000508       0x38 /usr/lib/gcc/arm-none-eabi/4.9.3/../../../arm-none-eabi/lib/armv7e-m/libc.a(lib_a-strtod.o)
 .debug_aranges
                0x0000000000000540       0x28 /usr/lib/gcc/arm-none-eabi/4.9.3/../../../arm-none-eabi/lib/armv7e-m/libc.a(lib_a-strtol.o)
 .debug_aranges
                0x0000000000000568       0x20 /usr/lib/gcc/arm-none-eabi/4.9.3/../../../arm-none-eabi/lib/armv7e-m/libc.a(lib_a-syswrite.o)
 .debug_aranges
                0x0000000000000588       0x30 /usr/lib/gcc/arm-none-eabi/4.9.3/../../../arm-none-eabi/lib/armv7e-m/libc.a(lib_a-vfprintf.o)
 .debug_aranges
                0x00000000000005b8       0x20 /usr/lib/gcc/arm-none-eabi/4.9.3/../../../arm-none-eabi/lib/armv7e-m/libc.a(lib_a-writer.o)
 .debug_aranges
                0x00000000000005d8       0x20 /usr/lib/gcc/arm-none-eabi/4.9.3/../../../arm-none-eabi/lib/armv7e-m/libc.a(lib_a-wsetup.o)
 .debug_aranges
                0x00000000000005f8       0x20 /usr/lib/gcc/arm-none-eabi/4.9.3/../../../arm-none-eabi/lib/armv7e-m/libc.a(lib_a-closer.o)
 .debug_aranges
                0x0000000000000618       0x18 /usr/lib/gcc/arm-none-eabi/4.9.3/../../../arm-none-eabi/lib/armv7e-m/libc.a(lib_a-ctype_.o)
 .debug_aranges
                0x0000000000000630       0x28 /usr/lib/gcc/arm-none-eabi/4.9.3/../../../arm-none-eabi/lib/armv7e-m/libc.a(lib_a-dtoa.o)
 .debug_aranges
                0x0000000000000658       0x28 /usr/lib/gcc/arm-none-eabi/4.9.3/../../../arm-none-eabi/lib/armv7e-m/libc.a(lib_a-fclose.o)
 .debug_aranges
                0x0000000000000680       0x20 /usr/lib/gcc/arm-none-eabi/4.9.3/../../../arm-none-eabi/lib/armv7e-m/libc.a(lib_a-fvwrite.o)
 .debug_aranges
                0x00000000000006a0       0x28 /usr/lib/gcc/arm-none-eabi/4.9.3/../../../arm-none-eabi/lib/armv7e-m/libc.a(lib_a-gdtoa-gethex.o)
 .debug_aranges
                0x00000000000006c8       0x20 /usr/lib/gcc/arm-none-eabi/4.9.3/../../../arm-none-eabi/lib/armv7e-m/libc.a(lib_a-gdtoa-hexnan.o)
 .debug_aranges
                0x00000000000006e8       0x58 /usr/lib/gcc/arm-none-eabi/4.9.3/../../../arm-none-eabi/lib/armv7e-m/libc.a(lib_a-locale.o)
 .debug_aranges
                0x0000000000000740       0x20 /usr/lib/gcc/arm-none-eabi/4.9.3/../../../arm-none-eabi/lib/armv7e-m/libc.a(lib_a-lseekr.o)
 .debug_aranges
                0x0000000000000760       0x20 /usr/lib/gcc/arm-none-eabi/4.9.3/../../../arm-none-eabi/lib/armv7e-m/libc.a(lib_a-makebuf.o)
 .debug_aranges
                0x0000000000000780       0x20 /usr/lib/gcc/arm-none-eabi/4.9.3/../../../arm-none-eabi/lib/armv7e-m/libc.a(lib_a-memchr.o)
 .debug_aranges
                0x00000000000007a0       0x20 /usr/lib/gcc/arm-none-eabi/4.9.3/../../../arm-none-eabi/lib/armv7e-m/libc.a(lib_a-memcpy.o)
 .debug_aranges
                0x00000000000007c0       0x20 /usr/lib/gcc/arm-none-eabi/4.9.3/../../../arm-none-eabi/lib/armv7e-m/libc.a(lib_a-memmove.o)
 .debug_aranges
                0x00000000000007e0       0xb0 /usr/lib/gcc/arm-none-eabi/4.9.3/../../../arm-none-eabi/lib/armv7e-m/libc.a(lib_a-mprec.o)
 .debug_aranges
                0x0000000000000890       0x20 /usr/lib/gcc/arm-none-eabi/4.9.3/../../../arm-none-eabi/lib/armv7e-m/libc.a(lib_a-readr.o)
 .debug_aranges
                0x00000000000008b0       0x20 /usr/lib/gcc/arm-none-eabi/4.9.3/../../../arm-none-eabi/lib/armv7e-m/libc.a(lib_a-reallocr.o)
 .debug_aranges
                0x00000000000008d0       0x20 /usr/lib/gcc/arm-none-eabi/4.9.3/../../../arm-none-eabi/lib/armv7e-m/libc.a(lib_a-s_fpclassify.o)
 .debug_aranges
                0x00000000000008f0       0x20 /usr/lib/gcc/arm-none-eabi/4.9.3/../../../arm-none-eabi/lib/armv7e-m/libc.a(lib_a-sf_nan.o)
 .debug_aranges
                0x0000000000000910       0x20 /usr/lib/gcc/arm-none-eabi/4.9.3/../../../arm-none-eabi/lib/armv7e-m/libc.a(lib_a-strcmp.o)
 .debug_aranges
                0x0000000000000930       0x40 /usr/lib/gcc/arm-none-eabi/4.9.3/../../../arm-none-eabi/lib/armv7e-m/libc.a(lib_a-vfiprintf.o)
 .debug_aranges
                0x0000000000000970       0x20 /usr/lib/gcc/arm-none-eabi/4.9.3/../../../arm-none-eabi/lib/armv7e-m/libc.a(lib_a-callocr.o)
 .debug_aranges
                0x0000000000000990       0x30 /usr/lib/gcc/arm-none-eabi/4.9.3/../../../arm-none-eabi/lib/armv7e-m/libc.a(lib_a-fputwc.o)
 .debug_aranges
                0x00000000000009c0       0x20 /usr/lib/gcc/arm-none-eabi/4.9.3/../../../arm-none-eabi/lib/armv7e-m/libc.a(lib_a-fstatr.o)
 .debug_aranges
                0x00000000000009e0       0x20 /usr/lib/gcc/arm-none-eabi/4.9.3/../../../arm-none-eabi/lib/armv7e-m/libc.a(lib_a-isattyr.o)
 .debug_aranges
                0x0000000000000a00       0x28 /usr/lib/gcc/arm-none-eabi/4.9.3/../../../arm-none-eabi/lib/armv7e-m/libc.a(lib_a-wbuf.o)
 .debug_aranges
                0x0000000000000a28       0x28 /usr/lib/gcc/arm-none-eabi/4.9.3/../../../arm-none-eabi/lib/armv7e-m/libc.a(lib_a-wcrtomb.o)
 .debug_aranges
                0x0000000000000a50       0x28 /usr/lib/gcc/arm-none-eabi/4.9.3/../../../arm-none-eabi/lib/armv7e-m/libc.a(lib_a-wctomb_r.o)
 .debug_aranges
                0x0000000000000a78       0x20 /usr/lib/gcc/arm-none-eabi/4.9.3/armv7e-m/libgcc.a(_arm_cmpdf2.o)
 .debug_aranges
                0x0000000000000a98       0x20 /usr/lib/gcc/arm-none-eabi/4.9.3/armv7e-m/libgcc.a(_arm_fixdfsi.o)

.debug_loc      0x0000000000000000    0x137d5
 .debug_loc     0x0000000000000000       0xb2 /usr/lib/gcc/arm-none-eabi/4.9.3/armv7e-m/libgcc.a(_fixunssfdi.o)
 .debug_loc     0x00000000000000b2       0xa0 /usr/lib/gcc/arm-none-eabi/4.9.3/armv7e-m/libgcc.a(bpabi.o)
 .debug_loc     0x0000000000000152      0xdef /usr/lib/gcc/arm-none-eabi/4.9.3/armv7e-m/libgcc.a(_divdi3.o)
 .debug_loc     0x0000000000000f41      0xd50 /usr/lib/gcc/arm-none-eabi/4.9.3/armv7e-m/libgcc.a(_udivdi3.o)
 .debug_loc     0x0000000000001c91       0x21 /usr/lib/gcc/arm-none-eabi/4.9.3/../../../arm-none-eabi/lib/armv7e-m/libc.a(lib_a-atof.o)
 .debug_loc     0x0000000000001cb2       0x63 /usr/lib/gcc/arm-none-eabi/4.9.3/../../../arm-none-eabi/lib/armv7e-m/libc.a(lib_a-atoi.o)
 .debug_loc     0x0000000000001d15      0x257 /usr/lib/gcc/arm-none-eabi/4.9.3/../../../arm-none-eabi/lib/armv7e-m/libc.a(lib_a-fflush.o)
 .debug_loc     0x0000000000001f6c      0x22e /usr/lib/gcc/arm-none-eabi/4.9.3/../../../arm-none-eabi/lib/armv7e-m/libc.a(lib_a-findfp.o)
 .debug_loc     0x000000000000219a      0x4fd /usr/lib/gcc/arm-none-eabi/4.9.3/../../../arm-none-eabi/lib/armv7e-m/libc.a(lib_a-freer.o)
 .debug_loc     0x0000000000002697      0x207 /usr/lib/gcc/arm-none-eabi/4.9.3/../../../arm-none-eabi/lib/armv7e-m/libc.a(lib_a-fwalk.o)
 .debug_loc     0x000000000000289e      0xdc4 /usr/lib/gcc/arm-none-eabi/4.9.3/../../../arm-none-eabi/lib/armv7e-m/libc.a(lib_a-mallocr.o)
 .debug_loc     0x0000000000003662      0x1ae /usr/lib/gcc/arm-none-eabi/4.9.3/../../../arm-none-eabi/lib/armv7e-m/libc.a(lib_a-memset.o)
 .debug_loc     0x0000000000003810       0x34 /usr/lib/gcc/arm-none-eabi/4.9.3/../../../arm-none-eabi/lib/armv7e-m/libc.a(lib_a-printf.o)
 .debug_loc     0x0000000000003844       0xd2 /usr/lib/gcc/arm-none-eabi/4.9.3/../../../arm-none-eabi/lib/armv7e-m/libc.a(lib_a-puts.o)
 .debug_loc     0x0000000000003916      0x11d /usr/lib/gcc/arm-none-eabi/4.9.3/../../../arm-none-eabi/lib/armv7e-m/libc.a(lib_a-reent.o)
 .debug_loc     0x0000000000003a33       0x4d /usr/lib/gcc/arm-none-eabi/4.9.3/../../../arm-none-eabi/lib/armv7e-m/libc.a(lib_a-sbrkr.o)
 .debug_loc     0x0000000000003a80      0x433 /usr/lib/gcc/arm-none-eabi/4.9.3/../../../arm-none-eabi/lib/armv7e-m/libc.a(lib_a-signal.o)
 .debug_loc     0x0000000000003eb3       0x9a /usr/lib/gcc/arm-none-eabi/4.9.3/../../../arm-none-eabi/lib/armv7e-m/libc.a(lib_a-signalr.o)
 .debug_loc     0x0000000000003f4d      0x29e /usr/lib/gcc/arm-none-eabi/4.9.3/../../../arm-none-eabi/lib/armv7e-m/libc.a(lib_a-stdio.o)
 .debug_loc     0x00000000000041eb       0x21 /usr/lib/gcc/arm-none-eabi/4.9.3/../../../arm-none-eabi/lib/armv7e-m/libc.a(lib_a-strlen.o)
 .debug_loc     0x000000000000420c      0x18f /usr/lib/gcc/arm-none-eabi/4.9.3/../../../arm-none-eabi/lib/armv7e-m/libc.a(lib_a-strncmp.o)
 .debug_loc     0x000000000000439b      0x13d /usr/lib/gcc/arm-none-eabi/4.9.3/../../../arm-none-eabi/lib/armv7e-m/libc.a(lib_a-strncpy.o)
 .debug_loc     0x00000000000044d8     0x255b /usr/lib/gcc/arm-none-eabi/4.9.3/../../../arm-none-eabi/lib/armv7e-m/libc.a(lib_a-strtod.o)
 .debug_loc     0x0000000000006a33      0x33f /usr/lib/gcc/arm-none-eabi/4.9.3/../../../arm-none-eabi/lib/armv7e-m/libc.a(lib_a-strtol.o)
 .debug_loc     0x0000000000006d72       0x8f /usr/lib/gcc/arm-none-eabi/4.9.3/../../../arm-none-eabi/lib/armv7e-m/libc.a(lib_a-syswrite.o)
 .debug_loc     0x0000000000006e01     0x2794 /usr/lib/gcc/arm-none-eabi/4.9.3/../../../arm-none-eabi/lib/armv7e-m/libc.a(lib_a-vfprintf.o)
 .debug_loc     0x0000000000009595       0xa5 /usr/lib/gcc/arm-none-eabi/4.9.3/../../../arm-none-eabi/lib/armv7e-m/libc.a(lib_a-writer.o)
 .debug_loc     0x000000000000963a       0xa2 /usr/lib/gcc/arm-none-eabi/4.9.3/../../../arm-none-eabi/lib/armv7e-m/libc.a(lib_a-wsetup.o)
 .debug_loc     0x00000000000096dc       0x4d /usr/lib/gcc/arm-none-eabi/4.9.3/../../../arm-none-eabi/lib/armv7e-m/libc.a(lib_a-closer.o)
 .debug_loc     0x0000000000009729     0x28e6 /usr/lib/gcc/arm-none-eabi/4.9.3/../../../arm-none-eabi/lib/armv7e-m/libc.a(lib_a-dtoa.o)
 .debug_loc     0x000000000000c00f      0x151 /usr/lib/gcc/arm-none-eabi/4.9.3/../../../arm-none-eabi/lib/armv7e-m/libc.a(lib_a-fclose.o)
 .debug_loc     0x000000000000c160      0x674 /usr/lib/gcc/arm-none-eabi/4.9.3/../../../arm-none-eabi/lib/armv7e-m/libc.a(lib_a-fvwrite.o)
 .debug_loc     0x000000000000c7d4     0x11d5 /usr/lib/gcc/arm-none-eabi/4.9.3/../../../arm-none-eabi/lib/armv7e-m/libc.a(lib_a-gdtoa-gethex.o)
 .debug_loc     0x000000000000d9a9      0x3f1 /usr/lib/gcc/arm-none-eabi/4.9.3/../../../arm-none-eabi/lib/armv7e-m/libc.a(lib_a-gdtoa-hexnan.o)
 .debug_loc     0x000000000000dd9a      0x131 /usr/lib/gcc/arm-none-eabi/4.9.3/../../../arm-none-eabi/lib/armv7e-m/libc.a(lib_a-locale.o)
 .debug_loc     0x000000000000decb       0xa5 /usr/lib/gcc/arm-none-eabi/4.9.3/../../../arm-none-eabi/lib/armv7e-m/libc.a(lib_a-lseekr.o)
 .debug_loc     0x000000000000df70      0x10c /usr/lib/gcc/arm-none-eabi/4.9.3/../../../arm-none-eabi/lib/armv7e-m/libc.a(lib_a-makebuf.o)
 .debug_loc     0x000000000000e07c      0x180 /usr/lib/gcc/arm-none-eabi/4.9.3/../../../arm-none-eabi/lib/armv7e-m/libc.a(lib_a-memchr.o)
 .debug_loc     0x000000000000e1fc      0x2d7 /usr/lib/gcc/arm-none-eabi/4.9.3/../../../arm-none-eabi/lib/armv7e-m/libc.a(lib_a-memmove.o)
 .debug_loc     0x000000000000e4d3     0x1ca6 /usr/lib/gcc/arm-none-eabi/4.9.3/../../../arm-none-eabi/lib/armv7e-m/libc.a(lib_a-mprec.o)
 .debug_loc     0x0000000000010179       0xa5 /usr/lib/gcc/arm-none-eabi/4.9.3/../../../arm-none-eabi/lib/armv7e-m/libc.a(lib_a-readr.o)
 .debug_loc     0x000000000001021e     0x1218 /usr/lib/gcc/arm-none-eabi/4.9.3/../../../arm-none-eabi/lib/armv7e-m/libc.a(lib_a-reallocr.o)
 .debug_loc     0x0000000000011436       0xa8 /usr/lib/gcc/arm-none-eabi/4.9.3/../../../arm-none-eabi/lib/armv7e-m/libc.a(lib_a-s_fpclassify.o)
 .debug_loc     0x00000000000114de       0x21 /usr/lib/gcc/arm-none-eabi/4.9.3/../../../arm-none-eabi/lib/armv7e-m/libc.a(lib_a-sf_nan.o)
 .debug_loc     0x00000000000114ff     0x19a5 /usr/lib/gcc/arm-none-eabi/4.9.3/../../../arm-none-eabi/lib/armv7e-m/libc.a(lib_a-vfiprintf.o)
 .debug_loc     0x0000000000012ea4      0x231 /usr/lib/gcc/arm-none-eabi/4.9.3/../../../arm-none-eabi/lib/armv7e-m/libc.a(lib_a-callocr.o)
 .debug_loc     0x00000000000130d5      0x1ff /usr/lib/gcc/arm-none-eabi/4.9.3/../../../arm-none-eabi/lib/armv7e-m/libc.a(lib_a-fputwc.o)
 .debug_loc     0x00000000000132d4       0x79 /usr/lib/gcc/arm-none-eabi/4.9.3/../../../arm-none-eabi/lib/armv7e-m/libc.a(lib_a-fstatr.o)
 .debug_loc     0x000000000001334d       0x4d /usr/lib/gcc/arm-none-eabi/4.9.3/../../../arm-none-eabi/lib/armv7e-m/libc.a(lib_a-isattyr.o)
 .debug_loc     0x000000000001339a      0x11d /usr/lib/gcc/arm-none-eabi/4.9.3/../../../arm-none-eabi/lib/armv7e-m/libc.a(lib_a-wbuf.o)
 .debug_loc     0x00000000000134b7      0x1fa /usr/lib/gcc/arm-none-eabi/4.9.3/../../../arm-none-eabi/lib/armv7e-m/libc.a(lib_a-wcrtomb.o)
 .debug_loc     0x00000000000136b1      0x124 /usr/lib/gcc/arm-none-eabi/4.9.3/../../../arm-none-eabi/lib/armv7e-m/libc.a(lib_a-wctomb_r.o)

.debug_str      0x0000000000000000     0x2427
 .debug_str     0x0000000000000000      0x1f0 /usr/lib/gcc/arm-none-eabi/4.9.3/armv7e-m/libgcc.a(_fixunssfdi.o)
                                        0x22d (size before relaxing)
 .debug_str     0x00000000000001f0       0x7b /usr/lib/gcc/arm-none-eabi/4.9.3/armv7e-m/libgcc.a(bpabi.o)
                                        0x1ce (size before relaxing)
 .debug_str     0x000000000000026b      0x11b /usr/lib/gcc/arm-none-eabi/4.9.3/armv7e-m/libgcc.a(_divdi3.o)
                                        0x27c (size before relaxing)
 .debug_str     0x0000000000000386      0x27d /usr/lib/gcc/arm-none-eabi/4.9.3/armv7e-m/libgcc.a(_udivdi3.o)
 .debug_str     0x0000000000000386      0x12f /usr/lib/gcc/arm-none-eabi/4.9.3/../../../arm-none-eabi/lib/armv7e-m/libc.a(lib_a-abort.o)
                                        0x1c1 (size before relaxing)
 .debug_str     0x00000000000004b5       0x38 /usr/lib/gcc/arm-none-eabi/4.9.3/../../../arm-none-eabi/lib/armv7e-m/libc.a(lib_a-atof.o)
                                        0x1c1 (size before relaxing)
 .debug_str     0x00000000000004ed      0x3b9 /usr/lib/gcc/arm-none-eabi/4.9.3/../../../arm-none-eabi/lib/armv7e-m/libc.a(lib_a-atoi.o)
                                        0x582 (size before relaxing)
 .debug_str     0x00000000000008a6       0xff /usr/lib/gcc/arm-none-eabi/4.9.3/../../../arm-none-eabi/lib/armv7e-m/libc.a(lib_a-fflush.o)
                                        0x5ef (size before relaxing)
 .debug_str     0x00000000000009a5      0x121 /usr/lib/gcc/arm-none-eabi/4.9.3/../../../arm-none-eabi/lib/armv7e-m/libc.a(lib_a-findfp.o)
                                        0x6b6 (size before relaxing)
 .debug_str     0x0000000000000ac6      0x176 /usr/lib/gcc/arm-none-eabi/4.9.3/../../../arm-none-eabi/lib/armv7e-m/libc.a(lib_a-freer.o)
                                        0x6e8 (size before relaxing)
 .debug_str     0x0000000000000c3c       0x3b /usr/lib/gcc/arm-none-eabi/4.9.3/../../../arm-none-eabi/lib/armv7e-m/libc.a(lib_a-fwalk.o)
                                        0x594 (size before relaxing)
 .debug_str     0x0000000000000c77       0x9e /usr/lib/gcc/arm-none-eabi/4.9.3/../../../arm-none-eabi/lib/armv7e-m/libc.a(lib_a-impure.o)
                                        0x58f (size before relaxing)
 .debug_str     0x0000000000000d15       0xdb /usr/lib/gcc/arm-none-eabi/4.9.3/../../../arm-none-eabi/lib/armv7e-m/libc.a(lib_a-mallocr.o)
                                        0x79e (size before relaxing)
 .debug_str     0x0000000000000df0       0xa8 /usr/lib/gcc/arm-none-eabi/4.9.3/../../../arm-none-eabi/lib/armv7e-m/libc.a(lib_a-memset.o)
                                        0x1d2 (size before relaxing)
 .debug_str     0x0000000000000e98       0x42 /usr/lib/gcc/arm-none-eabi/4.9.3/../../../arm-none-eabi/lib/armv7e-m/libc.a(lib_a-mlock.o)
                                        0x598 (size before relaxing)
 .debug_str     0x0000000000000eda       0x61 /usr/lib/gcc/arm-none-eabi/4.9.3/../../../arm-none-eabi/lib/armv7e-m/libc.a(lib_a-printf.o)
                                        0x5b8 (size before relaxing)
 .debug_str     0x0000000000000f3b       0x88 /usr/lib/gcc/arm-none-eabi/4.9.3/../../../arm-none-eabi/lib/armv7e-m/libc.a(lib_a-puts.o)
                                        0x5f6 (size before relaxing)
 .debug_str     0x0000000000000fc3       0x58 /usr/lib/gcc/arm-none-eabi/4.9.3/../../../arm-none-eabi/lib/armv7e-m/libc.a(lib_a-reent.o)
                                        0x5ae (size before relaxing)
 .debug_str     0x000000000000101b       0x37 /usr/lib/gcc/arm-none-eabi/4.9.3/../../../arm-none-eabi/lib/armv7e-m/libc.a(lib_a-sbrkr.o)
                                        0x586 (size before relaxing)
 .debug_str     0x0000000000001052       0xfa /usr/lib/gcc/arm-none-eabi/4.9.3/../../../arm-none-eabi/lib/armv7e-m/libc.a(lib_a-signal.o)
                                        0x605 (size before relaxing)
 .debug_str     0x000000000000114c       0x3c /usr/lib/gcc/arm-none-eabi/4.9.3/../../../arm-none-eabi/lib/armv7e-m/libc.a(lib_a-signalr.o)
                                        0x58b (size before relaxing)
 .debug_str     0x0000000000001188       0x8c /usr/lib/gcc/arm-none-eabi/4.9.3/../../../arm-none-eabi/lib/armv7e-m/libc.a(lib_a-stdio.o)
                                        0x5ea (size before relaxing)
 .debug_str     0x0000000000001214       0xa1 /usr/lib/gcc/arm-none-eabi/4.9.3/../../../arm-none-eabi/lib/armv7e-m/libc.a(lib_a-strlen.o)
                                        0x1cb (size before relaxing)
 .debug_str     0x00000000000012b5       0x37 /usr/lib/gcc/arm-none-eabi/4.9.3/../../../arm-none-eabi/lib/armv7e-m/libc.a(lib_a-strncmp.o)
                                        0x1c0 (size before relaxing)
 .debug_str     0x00000000000012ec       0x59 /usr/lib/gcc/arm-none-eabi/4.9.3/../../../arm-none-eabi/lib/armv7e-m/libc.a(lib_a-strncpy.o)
                                        0x1e8 (size before relaxing)
 .debug_str     0x0000000000001345      0x394 /usr/lib/gcc/arm-none-eabi/4.9.3/../../../arm-none-eabi/lib/armv7e-m/libc.a(lib_a-strtod.o)
                                        0x99d (size before relaxing)
 .debug_str     0x00000000000016d9       0x56 /usr/lib/gcc/arm-none-eabi/4.9.3/../../../arm-none-eabi/lib/armv7e-m/libc.a(lib_a-strtol.o)
                                        0x5b5 (size before relaxing)
 .debug_str     0x000000000000172f       0x9a /usr/lib/gcc/arm-none-eabi/4.9.3/../../../arm-none-eabi/lib/armv7e-m/libc.a(lib_a-syswrite.o)
                                        0x597 (size before relaxing)
 .debug_str     0x00000000000017c9      0x213 /usr/lib/gcc/arm-none-eabi/4.9.3/../../../arm-none-eabi/lib/armv7e-m/libc.a(lib_a-vfprintf.o)
                                        0x971 (size before relaxing)
 .debug_str     0x00000000000019dc       0x2d /usr/lib/gcc/arm-none-eabi/4.9.3/../../../arm-none-eabi/lib/armv7e-m/libc.a(lib_a-writer.o)
                                        0x583 (size before relaxing)
 .debug_str     0x0000000000001a09       0x3a /usr/lib/gcc/arm-none-eabi/4.9.3/../../../arm-none-eabi/lib/armv7e-m/libc.a(lib_a-wsetup.o)
                                        0x5ae (size before relaxing)
 .debug_str     0x0000000000001a43       0x2d /usr/lib/gcc/arm-none-eabi/4.9.3/../../../arm-none-eabi/lib/armv7e-m/libc.a(lib_a-closer.o)
                                        0x573 (size before relaxing)
 .debug_str     0x0000000000001a70       0x9a /usr/lib/gcc/arm-none-eabi/4.9.3/../../../arm-none-eabi/lib/armv7e-m/libc.a(lib_a-ctype_.o)
                                        0x140 (size before relaxing)
 .debug_str     0x0000000000001b0a       0xd8 /usr/lib/gcc/arm-none-eabi/4.9.3/../../../arm-none-eabi/lib/armv7e-m/libc.a(lib_a-dtoa.o)
                                        0x6e1 (size before relaxing)
 .debug_str     0x0000000000001be2       0x3e /usr/lib/gcc/arm-none-eabi/4.9.3/../../../arm-none-eabi/lib/armv7e-m/libc.a(lib_a-fclose.o)
                                        0x5dc (size before relaxing)
 .debug_str     0x0000000000001c20       0x5f /usr/lib/gcc/arm-none-eabi/4.9.3/../../../arm-none-eabi/lib/armv7e-m/libc.a(lib_a-fvwrite.o)
                                        0x621 (size before relaxing)
 .debug_str     0x0000000000001c7f       0xcc /usr/lib/gcc/arm-none-eabi/4.9.3/../../../arm-none-eabi/lib/armv7e-m/libc.a(lib_a-gdtoa-gethex.o)
                                        0x905 (size before relaxing)
 .debug_str     0x0000000000001d4b       0x3c /usr/lib/gcc/arm-none-eabi/4.9.3/../../../arm-none-eabi/lib/armv7e-m/libc.a(lib_a-gdtoa-hexnan.o)
                                        0x2ed (size before relaxing)
 .debug_str     0x0000000000001d87      0x17b /usr/lib/gcc/arm-none-eabi/4.9.3/../../../arm-none-eabi/lib/armv7e-m/libc.a(lib_a-locale.o)
                                        0x7ec (size before relaxing)
 .debug_str     0x0000000000001f02       0x34 /usr/lib/gcc/arm-none-eabi/4.9.3/../../../arm-none-eabi/lib/armv7e-m/libc.a(lib_a-lseekr.o)
                                        0x581 (size before relaxing)
 .debug_str     0x0000000000001f36      0x115 /usr/lib/gcc/arm-none-eabi/4.9.3/../../../arm-none-eabi/lib/armv7e-m/libc.a(lib_a-makebuf.o)
                                        0x691 (size before relaxing)
 .debug_str     0x000000000000204b       0x3c /usr/lib/gcc/arm-none-eabi/4.9.3/../../../arm-none-eabi/lib/armv7e-m/libc.a(lib_a-memchr.o)
                                        0x1d8 (size before relaxing)
 .debug_str     0x0000000000002087       0x38 /usr/lib/gcc/arm-none-eabi/4.9.3/../../../arm-none-eabi/lib/armv7e-m/libc.a(lib_a-memmove.o)
                                        0x1f1 (size before relaxing)
 .debug_str     0x00000000000020bf       0x70 /usr/lib/gcc/arm-none-eabi/4.9.3/../../../arm-none-eabi/lib/armv7e-m/libc.a(lib_a-mprec.o)
                                        0x69b (size before relaxing)
 .debug_str     0x000000000000212f       0x2c /usr/lib/gcc/arm-none-eabi/4.9.3/../../../arm-none-eabi/lib/armv7e-m/libc.a(lib_a-readr.o)
                                        0x581 (size before relaxing)
 .debug_str     0x000000000000215b       0x4e /usr/lib/gcc/arm-none-eabi/4.9.3/../../../arm-none-eabi/lib/armv7e-m/libc.a(lib_a-reallocr.o)
                                        0x670 (size before relaxing)
 .debug_str     0x00000000000021a9       0x9a /usr/lib/gcc/arm-none-eabi/4.9.3/../../../arm-none-eabi/lib/armv7e-m/libc.a(lib_a-s_fpclassify.o)
                                        0x1e8 (size before relaxing)
 .debug_str     0x0000000000002243       0x2e /usr/lib/gcc/arm-none-eabi/4.9.3/../../../arm-none-eabi/lib/armv7e-m/libc.a(lib_a-sf_nan.o)
                                        0x1d5 (size before relaxing)
 .debug_str     0x0000000000002271       0x29 /usr/lib/gcc/arm-none-eabi/4.9.3/../../../arm-none-eabi/lib/armv7e-m/libc.a(lib_a-vfiprintf.o)
                                        0x763 (size before relaxing)
 .debug_str     0x000000000000229a        0xf /usr/lib/gcc/arm-none-eabi/4.9.3/../../../arm-none-eabi/lib/armv7e-m/libc.a(lib_a-callocr.o)
                                        0x5c8 (size before relaxing)
 .debug_str     0x00000000000022a9       0x4b /usr/lib/gcc/arm-none-eabi/4.9.3/../../../arm-none-eabi/lib/armv7e-m/libc.a(lib_a-fputwc.o)
                                        0x5ef (size before relaxing)
 .debug_str     0x00000000000022f4       0x3a /usr/lib/gcc/arm-none-eabi/4.9.3/../../../arm-none-eabi/lib/armv7e-m/libc.a(lib_a-fstatr.o)
                                        0x666 (size before relaxing)
 .debug_str     0x000000000000232e       0x36 /usr/lib/gcc/arm-none-eabi/4.9.3/../../../arm-none-eabi/lib/armv7e-m/libc.a(lib_a-isattyr.o)
                                        0x57d (size before relaxing)
 .debug_str     0x0000000000002364       0x33 /usr/lib/gcc/arm-none-eabi/4.9.3/../../../arm-none-eabi/lib/armv7e-m/libc.a(lib_a-wbuf.o)
                                        0x5b3 (size before relaxing)
 .debug_str     0x0000000000002397       0x40 /usr/lib/gcc/arm-none-eabi/4.9.3/../../../arm-none-eabi/lib/armv7e-m/libc.a(lib_a-wcrtomb.o)
                                        0x5c6 (size before relaxing)
 .debug_str     0x00000000000023d7       0x50 /usr/lib/gcc/arm-none-eabi/4.9.3/../../../arm-none-eabi/lib/armv7e-m/libc.a(lib_a-wctomb_r.o)
                                        0x5cf (size before relaxing)

.debug_ranges   0x0000000000000000      0xea8
 .debug_ranges  0x0000000000000000       0xd0 /usr/lib/gcc/arm-none-eabi/4.9.3/armv7e-m/libgcc.a(_divdi3.o)
 .debug_ranges  0x00000000000000d0       0xd8 /usr/lib/gcc/arm-none-eabi/4.9.3/armv7e-m/libgcc.a(_udivdi3.o)
 .debug_ranges  0x00000000000001a8       0x10 /usr/lib/gcc/arm-none-eabi/4.9.3/../../../arm-none-eabi/lib/armv7e-m/libc.a(lib_a-abort.o)
 .debug_ranges  0x00000000000001b8       0x10 /usr/lib/gcc/arm-none-eabi/4.9.3/../../../arm-none-eabi/lib/armv7e-m/libc.a(lib_a-atof.o)
 .debug_ranges  0x00000000000001c8       0x18 /usr/lib/gcc/arm-none-eabi/4.9.3/../../../arm-none-eabi/lib/armv7e-m/libc.a(lib_a-atoi.o)
 .debug_ranges  0x00000000000001e0       0x80 /usr/lib/gcc/arm-none-eabi/4.9.3/../../../arm-none-eabi/lib/armv7e-m/libc.a(lib_a-fflush.o)
 .debug_ranges  0x0000000000000260       0xe8 /usr/lib/gcc/arm-none-eabi/4.9.3/../../../arm-none-eabi/lib/armv7e-m/libc.a(lib_a-findfp.o)
 .debug_ranges  0x0000000000000348       0x18 /usr/lib/gcc/arm-none-eabi/4.9.3/../../../arm-none-eabi/lib/armv7e-m/libc.a(lib_a-freer.o)
 .debug_ranges  0x0000000000000360       0x18 /usr/lib/gcc/arm-none-eabi/4.9.3/../../../arm-none-eabi/lib/armv7e-m/libc.a(lib_a-fwalk.o)
 .debug_ranges  0x0000000000000378       0x50 /usr/lib/gcc/arm-none-eabi/4.9.3/../../../arm-none-eabi/lib/armv7e-m/libc.a(lib_a-mallocr.o)
 .debug_ranges  0x00000000000003c8       0x10 /usr/lib/gcc/arm-none-eabi/4.9.3/../../../arm-none-eabi/lib/armv7e-m/libc.a(lib_a-memset.o)
 .debug_ranges  0x00000000000003d8       0x18 /usr/lib/gcc/arm-none-eabi/4.9.3/../../../arm-none-eabi/lib/armv7e-m/libc.a(lib_a-mlock.o)
 .debug_ranges  0x00000000000003f0       0x18 /usr/lib/gcc/arm-none-eabi/4.9.3/../../../arm-none-eabi/lib/armv7e-m/libc.a(lib_a-printf.o)
 .debug_ranges  0x0000000000000408       0x38 /usr/lib/gcc/arm-none-eabi/4.9.3/../../../arm-none-eabi/lib/armv7e-m/libc.a(lib_a-puts.o)
 .debug_ranges  0x0000000000000440       0x18 /usr/lib/gcc/arm-none-eabi/4.9.3/../../../arm-none-eabi/lib/armv7e-m/libc.a(lib_a-reent.o)
 .debug_ranges  0x0000000000000458       0x10 /usr/lib/gcc/arm-none-eabi/4.9.3/../../../arm-none-eabi/lib/armv7e-m/libc.a(lib_a-sbrkr.o)
 .debug_ranges  0x0000000000000468       0x60 /usr/lib/gcc/arm-none-eabi/4.9.3/../../../arm-none-eabi/lib/armv7e-m/libc.a(lib_a-signal.o)
 .debug_ranges  0x00000000000004c8       0x18 /usr/lib/gcc/arm-none-eabi/4.9.3/../../../arm-none-eabi/lib/armv7e-m/libc.a(lib_a-signalr.o)
 .debug_ranges  0x00000000000004e0       0x30 /usr/lib/gcc/arm-none-eabi/4.9.3/../../../arm-none-eabi/lib/armv7e-m/libc.a(lib_a-stdio.o)
 .debug_ranges  0x0000000000000510       0x10 /usr/lib/gcc/arm-none-eabi/4.9.3/../../../arm-none-eabi/lib/armv7e-m/libc.a(lib_a-strlen.o)
 .debug_ranges  0x0000000000000520       0x10 /usr/lib/gcc/arm-none-eabi/4.9.3/../../../arm-none-eabi/lib/armv7e-m/libc.a(lib_a-strncmp.o)
 .debug_ranges  0x0000000000000530       0x10 /usr/lib/gcc/arm-none-eabi/4.9.3/../../../arm-none-eabi/lib/armv7e-m/libc.a(lib_a-strncpy.o)
 .debug_ranges  0x0000000000000540       0xb0 /usr/lib/gcc/arm-none-eabi/4.9.3/../../../arm-none-eabi/lib/armv7e-m/libc.a(lib_a-strtod.o)
 .debug_ranges  0x00000000000005f0       0x18 /usr/lib/gcc/arm-none-eabi/4.9.3/../../../arm-none-eabi/lib/armv7e-m/libc.a(lib_a-strtol.o)
 .debug_ranges  0x0000000000000608       0x10 /usr/lib/gcc/arm-none-eabi/4.9.3/../../../arm-none-eabi/lib/armv7e-m/libc.a(lib_a-syswrite.o)
 .debug_ranges  0x0000000000000618      0x148 /usr/lib/gcc/arm-none-eabi/4.9.3/../../../arm-none-eabi/lib/armv7e-m/libc.a(lib_a-vfprintf.o)
 .debug_ranges  0x0000000000000760       0x10 /usr/lib/gcc/arm-none-eabi/4.9.3/../../../arm-none-eabi/lib/armv7e-m/libc.a(lib_a-writer.o)
 .debug_ranges  0x0000000000000770       0x30 /usr/lib/gcc/arm-none-eabi/4.9.3/../../../arm-none-eabi/lib/armv7e-m/libc.a(lib_a-wsetup.o)
 .debug_ranges  0x00000000000007a0       0x10 /usr/lib/gcc/arm-none-eabi/4.9.3/../../../arm-none-eabi/lib/armv7e-m/libc.a(lib_a-closer.o)
 .debug_ranges  0x00000000000007b0       0x18 /usr/lib/gcc/arm-none-eabi/4.9.3/../../../arm-none-eabi/lib/armv7e-m/libc.a(lib_a-dtoa.o)
 .debug_ranges  0x00000000000007c8       0x48 /usr/lib/gcc/arm-none-eabi/4.9.3/../../../arm-none-eabi/lib/armv7e-m/libc.a(lib_a-fclose.o)
 .debug_ranges  0x0000000000000810       0x30 /usr/lib/gcc/arm-none-eabi/4.9.3/../../../arm-none-eabi/lib/armv7e-m/libc.a(lib_a-fvwrite.o)
 .debug_ranges  0x0000000000000840       0x38 /usr/lib/gcc/arm-none-eabi/4.9.3/../../../arm-none-eabi/lib/armv7e-m/libc.a(lib_a-gdtoa-gethex.o)
 .debug_ranges  0x0000000000000878       0x10 /usr/lib/gcc/arm-none-eabi/4.9.3/../../../arm-none-eabi/lib/armv7e-m/libc.a(lib_a-gdtoa-hexnan.o)
 .debug_ranges  0x0000000000000888       0x48 /usr/lib/gcc/arm-none-eabi/4.9.3/../../../arm-none-eabi/lib/armv7e-m/libc.a(lib_a-locale.o)
 .debug_ranges  0x00000000000008d0       0x10 /usr/lib/gcc/arm-none-eabi/4.9.3/../../../arm-none-eabi/lib/armv7e-m/libc.a(lib_a-lseekr.o)
 .debug_ranges  0x00000000000008e0       0x10 /usr/lib/gcc/arm-none-eabi/4.9.3/../../../arm-none-eabi/lib/armv7e-m/libc.a(lib_a-makebuf.o)
 .debug_ranges  0x00000000000008f0       0x10 /usr/lib/gcc/arm-none-eabi/4.9.3/../../../arm-none-eabi/lib/armv7e-m/libc.a(lib_a-memchr.o)
 .debug_ranges  0x0000000000000900       0x10 /usr/lib/gcc/arm-none-eabi/4.9.3/../../../arm-none-eabi/lib/armv7e-m/libc.a(lib_a-memmove.o)
 .debug_ranges  0x0000000000000910      0x108 /usr/lib/gcc/arm-none-eabi/4.9.3/../../../arm-none-eabi/lib/armv7e-m/libc.a(lib_a-mprec.o)
 .debug_ranges  0x0000000000000a18       0x10 /usr/lib/gcc/arm-none-eabi/4.9.3/../../../arm-none-eabi/lib/armv7e-m/libc.a(lib_a-readr.o)
 .debug_ranges  0x0000000000000a28      0x180 /usr/lib/gcc/arm-none-eabi/4.9.3/../../../arm-none-eabi/lib/armv7e-m/libc.a(lib_a-reallocr.o)
 .debug_ranges  0x0000000000000ba8       0x10 /usr/lib/gcc/arm-none-eabi/4.9.3/../../../arm-none-eabi/lib/armv7e-m/libc.a(lib_a-s_fpclassify.o)
 .debug_ranges  0x0000000000000bb8       0x10 /usr/lib/gcc/arm-none-eabi/4.9.3/../../../arm-none-eabi/lib/armv7e-m/libc.a(lib_a-sf_nan.o)
 .debug_ranges  0x0000000000000bc8      0x1f0 /usr/lib/gcc/arm-none-eabi/4.9.3/../../../arm-none-eabi/lib/armv7e-m/libc.a(lib_a-vfiprintf.o)
 .debug_ranges  0x0000000000000db8       0x50 /usr/lib/gcc/arm-none-eabi/4.9.3/../../../arm-none-eabi/lib/armv7e-m/libc.a(lib_a-callocr.o)
 .debug_ranges  0x0000000000000e08       0x20 /usr/lib/gcc/arm-none-eabi/4.9.3/../../../arm-none-eabi/lib/armv7e-m/libc.a(lib_a-fputwc.o)
 .debug_ranges  0x0000000000000e28       0x10 /usr/lib/gcc/arm-none-eabi/4.9.3/../../../arm-none-eabi/lib/armv7e-m/libc.a(lib_a-fstatr.o)
 .debug_ranges  0x0000000000000e38       0x10 /usr/lib/gcc/arm-none-eabi/4.9.3/../../../arm-none-eabi/lib/armv7e-m/libc.a(lib_a-isattyr.o)
 .debug_ranges  0x0000000000000e48       0x30 /usr/lib/gcc/arm-none-eabi/4.9.3/../../../arm-none-eabi/lib/armv7e-m/libc.a(lib_a-wbuf.o)
 .debug_ranges  0x0000000000000e78       0x18 /usr/lib/gcc/arm-none-eabi/4.9.3/../../../arm-none-eabi/lib/armv7e-m/libc.a(lib_a-wcrtomb.o)
 .debug_ranges  0x0000000000000e90       0x18 /usr/lib/gcc/arm-none-eabi/4.9.3/../../../arm-none-eabi/lib/armv7e-m/libc.a(lib_a-wctomb_r.o)
